00000000 A _section_02_size
00000000 A _section_03_size
00000000 A _section_04_size
00000000 A _section_05_size
00000000 A _section_06_size
00000000 A _section_07_size
00000000 A _section_08_size
00000034 A _ecos_mem_sizembit
00000490 A _section_09_size
00000730 A _section_01_size
0014e8cc A _section_10_size
0014f48c A ecos_bin_size
00300000 A _load_entry_start_base
00300000 A _section_01_addr
00300000 T _start
0030000c A _load_entry_end_base
0030000c t _start_end
00300180 T other_vector
003001a0 t other_vector_end
00300200 A __ebase
00300200 A __start_vector_table
00300200 T other_vector_int
003002e8 A __end_vector_table
003002e8 t other_vector_int_end
00300400 D gBinInfo
00300480 T _start2
00300480 t hal_cpu_init
00300638 t hal_fpu_init
00300638 t hal_intc_init
00300638 t hal_memc_init
00300638 t hal_mmu_init
0030068c t hal_cache_init
003006e0 t hal_timer_init
00300730 R VERSION_INFO_BEGIN
00300730 A _section_02_addr
00300730 A _section_03_addr
00300730 A _section_04_addr
00300730 A _section_05_addr
00300730 A _section_06_addr
00300730 A _section_07_addr
00300730 A _section_08_addr
00300730 A _section_09_addr
00300730 t _start2_end
00300744 A _section_verinfostart
00300744 R libextras_LIBRARY_VERSION_INFO
00300764 R Dhcpelios_LIBRARY_VERSION_INFO
00300794 R devssdio_LIBRARY_VERSION_INFO
003007b4 R libnt18211wlan_LIBRARY_VERSION_INFO
003007dc R libnt18211config_LIBRARY_VERSION_INFO
00300804 R libnt18211HWconfig_LIBRARY_VERSION_INFO
00300830 R audproc_LIBRARY_VERSION_INFO
00300850 R devscc_LIBRARY_VERSION_INFO
00300870 R ethcamboot_LIBRARY_VERSION_INFO
00300894 R nvtipc_LIBRARY_VERSION_INFO
003008b4 R strmsnd_LIBRARY_VERSION_INFO
003008d4 R Nvtver_LIBRARY_VERSION_INFO
00300900 R ethsocket_LIBRARY_VERSION_INFO
00300920 R hfs_LIBRARY_VERSION_INFO
0030093c R libProfile_LIBRARY_VERSION_INFO
00300960 R cmdsys_LIBRARY_VERSION_INFO
0030098c R msdcnvt_LIBRARY_VERSION_INFO
003009ac R nvtimeth_LIBRARY_VERSION_INFO
003009cc R curl_LIBRARY_VERSION_INFO
003009e8 R Lviewd_LIBRARY_VERSION_INFO
00300a08 R libtarget_LIBRARY_VERSION_INFO
00300a28 R Iperf_LIBRARY_VERSION_INFO
00300a50 R audcodec_LIBRARY_VERSION_INFO
00300a70 R usocket_LIBRARY_VERSION_INFO
00300aa0 R FileSysECOS_LIBRARY_VERSION_INFO
00300ac4 R ethsocketcli_LIBRARY_VERSION_INFO
00300ae8 R devsrtl8189ftv_LIBRARY_VERSION_INFO
00300b1c R nvtwifi_LIBRARY_VERSION_INFO
00300b3c R nvtrtk_LIBRARY_VERSION_INFO
00300b5c R rtkcmd_LIBRARY_VERSION_INFO
00300b84 R rtkwps_LIBRARY_VERSION_INFO
00300bac R VERSION_INFO_END
00300bac A _section_verinfoend
00300bc0 T _ftext
00300bc0 A _section_10_addr
00300bc0 T _stext
00300bc0 T ethlinkstatusget
00300be4 T cyg_user_start
00300c8c T ethlinkstatusnofity
00300db4 T OS_RegSysException
00300e28 t os_sys_default_exception_handle
00300ed0 T init_ipc
00300f78 T init_cmd
00300f94 T usage_main
00301134 t UsageCpuThreadProc
0030119c T help_main
003011c8 T heap_main
003011f4 T EthCam_PortReadyCheck
00301210 T udpsocket_notify
0030122c T EthcamIperf_CmdLine
003012d0 T EthCam_SetFixLeaseInfo
0030141c T EthCam_Dhcp_Server_Start
003014f4 T EthCam_Dhcp_Set_Interface
0030151c T EthcamBoot_Dhcp
00301568 T ethcam_notify_ethhub_conn
003015c4 T ethcam_check_path_id
0030164c T init_eth0
003016c8 T EthCam_SrvCheckConn
00301784 T EthcamCpu1IpcReady
003017dc t thread_eth0
00301914 T EthCam_SrvCliConnIPNofity
003019b4 t EthCam_DhcpSrvCBCliConn
00301b54 T udpsocket_recv
00301d34 t on_get_cfg
00301d6c t on_get_brc
00301d8c t on_get_meta
00301dac t on_notify_rtsp_event
00301dcc t on_require_key_frame
00301dec t on_seek
00301e18 t on_pause
00301e38 t on_resume
00301e58 t on_parse_url
00301f5c T nvtrtspd_ecos_main
003020b0 T testmem_main
0030214c t date_unix2dos
003023ec T fsipc_main
00302cbc T iperfresult_main
00302d48 T iperfc_main
00302d74 T iperf_main
00302db4 T ping_cmd
003032ac T ping_main
003033b8 T __default_exception_vsr
003034e8 T __default_core_timer_interrupt_vsr
003034e8 t __default_exception_vsr_end
00303694 t restore_state2
00303798 t __default_core_timer_interrupt_vsr_end
00303798 T __default_interrupt_vsr
00303954 t restore_state
00303a58 t __default_interrupt_vsr_end
00303a58 t hal_intc_translation_table
00303a98 T hal_interrupt_stack_call_pending_DSRs
00303af8 t hal_interrupt_stack_call_pending_DSRs_end
00303af8 T hal_zero_bss
00303b9c t _GLOBAL__I.49000_ioinit.cxx
00303b9c t hal_zero_bss_end
00303bb8 t serial_set_config
00303be4 t serial_rcv_char
00303c94 t serial_xmt_char
00303d9c t serial_init
00303e74 t serial_get_config
00304184 t serial_read
00304330 t serial_write
003044fc t serial_select
0030458c t tty_init
003045a8 t tty_lookup
003045bc t tty_set_config
00304614 t tty_get_config
00304670 t tty_select
00304690 t tty_read
003048e4 t tty_write
00304a34 t haldiag_set_config
00304a78 t haldiag_getc
00304a98 t haldiag_putc
00304ab8 t haldiag_init
00304ad8 W _ZN12Cyg_Mempolt2I35Cyg_Mempool_dlmalloc_ImplementationE9try_allocEi
00304b6c t _ZL11debug_allocm
00304c10 W _ZN12Cyg_Mempolt2I35Cyg_Mempool_dlmalloc_ImplementationE4freeEPhi
00304da8 W _ZN12Cyg_Mempolt2I35Cyg_Mempool_dlmalloc_ImplementationE12resize_allocEPhiPi
00304e3c T _Z11nvt_dumpmemjj
00304fac t _ZL13debug_reallocPhmPi
00305178 t _ZL10debug_freePh
003052ac T free
0030532c T mallinfo
0030546c T dumpmallinfo
0030558c T malloc
00305634 T calloc
003056f8 T realloc
00305948 t _GLOBAL__I.55000_startup.cxx
0030597c T cyg_fileio_enosys
00305984 T cyg_fileio_seltrue
0030598c T cyg_timestamp
003059b0 T cyg_fs_unlock
00305b08 T cyg_fs_lock
00305c60 t _ZL8matchlenPKcS0_
00305d38 T cyg_mtab_lookup
00305eac T umount
00306008 T mount
003062c4 t _ZL13cyg_mtab_initv
00306454 T _ZN21Cyg_Fileio_Init_ClassC1Ev
00306484 t _GLOBAL__I.50000_cyg_mtab_extra
003064a4 t _ZL9dev_mountP15cyg_fstab_entryP14cyg_mtab_entry
003064ac t _ZL10dev_umountP14cyg_mtab_entry
003064b4 t _ZL10dev_unlinkP14cyg_mtab_entryjPKc
003064bc t _ZL9dev_mkdirP14cyg_mtab_entryjPKc
003064c4 t _ZL9dev_rmdirP14cyg_mtab_entryjPKc
003064cc t _ZL10dev_renameP14cyg_mtab_entryjPKcjS2_
003064d4 t _ZL8dev_linkP14cyg_mtab_entryjPKcjS2_i
003064dc t _ZL11dev_opendirP14cyg_mtab_entryjPKcP12CYG_FILE_TAG
003064e4 t _ZL9dev_chdirP14cyg_mtab_entryjPKcPj
003064ec t _ZL11dev_getinfoP14cyg_mtab_entryjPKciPvi
003064f4 t _ZL11dev_setinfoP14cyg_mtab_entryjPKciPvi
003064fc t _ZL12dev_fo_lseekP12CYG_FILE_TAGPxi
00306510 t _ZL12dev_fo_ioctlP12CYG_FILE_TAGjj
00306518 t _ZL12dev_fo_fstatP12CYG_FILE_TAGP4stat
00306560 t _ZL8dev_statP14cyg_mtab_entryjPKcP4stat
003065dc t _ZL8dev_openP14cyg_mtab_entryjPKciP12CYG_FILE_TAG
003066e4 t _ZL14dev_fo_setinfoP12CYG_FILE_TAGiPvi
0030670c t _ZL12dev_fo_closeP12CYG_FILE_TAG
0030674c t _ZL14dev_fo_getinfoP12CYG_FILE_TAGiPvi
00306774 t _ZL12dev_fo_fsyncP12CYG_FILE_TAGi
003067a0 t _ZL13dev_fo_selectP12CYG_FILE_TAGij
003067bc t _ZL12dev_fo_writeP12CYG_FILE_TAGP11CYG_UIO_TAG
00306890 t _ZL11dev_fo_readP12CYG_FILE_TAGP11CYG_UIO_TAG
00306964 t bsd_init
0030696c t bsd_lseek
00306974 t bsd_fsync
0030697c t bsd_getinfo
00306984 t bsd_setinfo
0030698c t bsd_fstat
003069f4 t bsd_close
00306a40 t bsd_select
00306bbc t bsd_ioctl
00306d6c t bsd_write
00306da0 t bsd_read
00306dd0 t bsd_getname
00306edc t bsd_recvmsg
0030710c t bsd_setsockopt
0030714c t bsd_getsockopt
003071b8 t bsd_shutdown
003071d4 t bsd_listen
003071f4 t bsd_accept
003074f0 t bsd_connect
00307674 t bsd_bind
00307700 t bsd_socket
003077a4 T sockargs
00307880 t bsd_sendmsg
00307a84 T dhcpd_dumpMsg
00307a8c T dhcpd_dumpLeaseConf
00307a94 T dhcpd_reg_cli_attach_cb_func
00307aa4 T dhcpd_judgeLeaseIPs
00307b94 T dhcpd_startup
00307cb8 T dhcpd_cb_cli_attach
00307d40 t exit_server
00307e1c t elios_dhcpd_init
00308794 T DHCPinet_cksum
0030882c T DHCPether_print
00308890 T DHCPNumber2String
003088c8 T DHCPICMPtest
00308a5c T DHCPPingHost
00308d28 t read_yn
00308dbc t read_u32
00308dfc t read_str
00308e48 t read_ip
00308eb8 T read_config
00309090 t read_opt
00309404 T dhcp_reset_lease_conf
00309554 T dhcpd_set_interface
00309640 T dhcpd_set_lease_conf
0030988c T find_lease_by_yiaddr
003098e4 T find_lease_by_chaddr
00309994 T oldest_expired_lease
00309a10 T lease_expired
00309a4c T clear_lease
00309b84 T add_lease
00309c1c T check_ip
00309ce4 T find_address
00309e8c T end_option
00309ed0 T FreeOptionsList
00309f28 T attach_option
0030a0b0 T add_option_string
0030a198 T add_simple_option
0030a2ac T get_option
0030a498 T checksum
0030a534 T kernel_packet
0030a94c T fp_raw_packet
0030ac60 T raw_packet
0030acd0 T get_packet
0030b010 T init_header
0030b0b0 t init_packet
0030b1ac t add_bootp_options
0030b20c t send_packet
0030b2f4 T send_inform
0030b38c T sendNAK
0030b3c8 T sendNAK_CliIP
0030b414 T sendACK
0030b5b4 T sendOffer
0030b8e4 T listen_socket
0030bc20 T read_interface
0030be38 T cyg_sdio_cardDetectCB
0030be40 T cyg_sdio_writeProtCB
0030be48 T cyg_sdio_getConfig
0030be50 T cyg_sdio_unlock
0030be84 T cyg_sdio_initial
0030bef4 T cyg_sdio_lock
0030bf20 T sdio_getfunc
0030bf58 T sdio_setAutoDisIoint
0030bf90 T sdio_getBlocksize
0030bfc8 T sdio_setBlocksize
0030c000 T cyg_sdio_waitIoint
0030c038 T cyg_sdio_setIointcb
0030c074 T cyg_sdio_enIoint
0030c0bc T cyg_sdio_issueCmd53
0030c140 T cyg_sdio_issueCmd52
0030c1bc t sdio_setConfig
0030c2a8 T cyg_sdio_writeSectors
0030c2fc T cyg_sdio_readSector
0030c370 T cyg_sdio_lookup
0030c4b0 T cyg_sdioHost_setClkGatingHigh
0030c54c T cyg_sdioHost_sinkBusPower
0030c554 T cyg_sdioHost_setPadDriving
0030c55c T cyg_sdioHost_reset
0030c60c T cyg_sdioHost_getCmdResult
0030c630 T cyg_sdioHost_getDataResult
0030c654 T cyg_sdioHost_setArg
0030c69c T cyg_sdioHost_getShortRsp
0030c6e4 T cyg_sdioHost_getLongRsp
0030c79c T cyg_sdioHost_chkVoltSwitch
0030c7c4 T cyg_sdioHost_setIntEn
0030c824 T cyg_sdioHost_setBusWidth
0030c874 T cyg_sdioHost_enClkOut
0030c910 T cyg_sdioHost_setClkType
0030c9ac T cyg_sdioHost_setPhyRst
0030ca68 T cyg_sdioHost_setPhyClkInDly
0030cac8 T cyg_sdioHost_setPhySrcClkSel
0030cb28 T cyg_sdioHost_setInputDelay
0030cc20 T cyg_sdioHost_setClkInputDelay
0030ccac T cyg_sdioHost_getBlksize
0030ccf4 T cyg_sdioHost_setBlkSize
0030cd54 T cyg_sdioHost_setDataTimeOut
0030cd9c T cyg_sdioHost_ResetData
0030ceb4 T cyg_sdioHost_disSdioIntDetect
0030cf18 T cyg_sdioHost_enSdioIntDetect
0030cf78 T cyg_sdioHost_readBlock
0030d274 T cyg_sdioHost_setIoIntEn
0030d378 T cyg_sdioHost_setAutoDisIoint
0030d390 T cyg_sdioHost2_dsr
0030d4c4 T cyg_sdioHost_dsr
0030d5d8 T cyg_sdioHost2_isr
0030d610 T cyg_sdioHost_isr
0030d640 T cyg_sdioHost_waitIo
0030d6b4 T cyg_sdioHost_waitDataEnd
0030d74c T cyg_sdioHost_sendCmd
0030d978 T cyg_sdioHost_enInt
0030d9e8 T cyg_sdioHost_resetAsync
0030dad8 T cyg_sdioHost_creatInt
0030dbb4 T cyg_sdioHost_isPinMuxOpened
0030dc54 T cyg_sdioHost_disPinMux
0030dcb0 T cyg_sdioHost_enPinMux
0030dd0c T cyg_sdioHost_getSrcClock
0030dde0 T cyg_sdioHost_getBusClk
0030de94 T cyg_sdioHost_setBusClk
0030dfb0 T cyg_sdioHost_setSrcClock
0030e16c T cyg_sdioHost_setClkGating
0030e20c T cyg_sdioHost_chkClkGating
0030e274 T cyg_sdioHost_chkClock
0030e2dc T cyg_sdioHost_disClock
0030e33c T cyg_sdioHost_enClock
0030e39c T cyg_sdioHost_setupDataTransferPIO
0030e5e8 T cyg_sdioHost_setupDataTransferDMA
0030ebb0 T sdioPrtcl_getfunc
0030ebc4 T cyg_sdioPrtcl_getCardExist
0030ec04 T cyg_sdioPrtcl_getCardWriteProt
0030eca8 T cyg_sdioPrtcl_setCallBack
0030ed5c T cyg_sdioPrtcl_parseCardSCR
0030edf4 T cyg_sdioPrtcl_parseCardSSR
0030eeb4 T cyg_sdioPrtcl_parseCardSDSwFun
0030f024 T cyg_sdioPrtcl_parseMMCExtCSD
0030f184 T cyg_sdioPrtcl_setMemPool
0030f1e8 t sdioPrtcl_sendSDCmd
0030f3a0 T cyg_sdioPrtcl_lock
0030f3c0 T cyg_sdioPrtcl_sendIOCMD52
0030f570 T cyg_sdioPrtcl_setClkType
0030f5c0 T cyg_sdioPrtcl_switchSDMode
0030f834 T cyg_sdioPrtcl_setSDSpeedMode
0030f970 T cyg_sdioPrtcl_getSDSwFunStatus
0030fa14 t sdioPrtcl_waitCardTransferState
0030fbe4 T cyg_sdioPrtcl_getCardAppData
00310018 T cyg_sdioPrtcl_getSSRRegister
003100b4 T cyg_sdioPrtcl_getSCRRegister
00310150 T cyg_sdioPrtcl_getExtCSD
00310390 T cyg_sdioPrtcl_getMMCExtCSD
0031042c T cyg_sdioPrtcl_writeSectors
00310bc0 T cyg_sdioPrtcl_parseCardCSD
00310dec T cyg_sdioPrtcl_parseCardCID
00310ff4 T cyg_sdioPrtcl_getCardInfo
00311660 T cyg_sdioPrtcl_sendIOCMD53
00311a4c T cyg_sdioPrtcl_readSectors
00312234 T cyg_sdioPrtcl_setConfig
00312800 T cyg_sdioPrtcl_open
00314564 T cyg_pll_setPLLEn
003145d0 T cyg_pll_getPLLSpreadSpectrum
00314754 T cyg_pll_getPLLFreq
003148ac T cyg_pll_getClockRate
00314900 T cyg_pll_isClockEnabled
00314928 T cyg_pll_getClkAutoGating
003149c0 T cyg_pll_clearClkAutoGating
00314a94 T cyg_pll_setClkAutoGating
00314b60 T cyg_pll_disableSystemReset
00314bc8 T cyg_pll_enableSystemReset
00314c38 T cyg_pll_disableClock
00314ce0 T cyg_pll_enableClock
00314db4 T cyg_pll_setClockRate
00315290 t pinmux_selectMIDisplay
003154bc T cyg_pinmux_setPinmux
00315df8 T cyg_pinmux_chkPinmux
00315ed0 t audproc_process
00315f3c T AiSpeech_AudProc_Init
00315fcc T AudProc_CmdLine
003162e0 t wakeup_handler_cb
003163a0 T NVT_HoughLink
003163a8 T ipcHough_Trans_main
0031656c T hough_transferAddrBack
003165fc T houghInit
00316678 t runIPCHoughProgram
003168a4 T Nvt_HoughLineP
003173c0 t _GLOBAL__I_nvtlive555_open
0031742c T _Z12Live555_MainiPPc
00317650 t _ZL14PullJobHandlerPvi
003176bc T nvtlive555_close
00317814 T nvtlive555_open
00317974 t _ZL10ThreadProcj
0031799c T _ZN6MediumD2Ev
003179dc T _ZN6MediumD1Ev
00317a1c T _ZNK6Medium8isSourceEv
00317a24 T _ZNK6Medium6isSinkEv
00317a2c T _ZNK6Medium14isRTCPInstanceEv
00317a34 T _ZNK6Medium12isRTSPClientEv
00317a3c T _ZNK6Medium12isRTSPServerEv
00317a44 T _ZNK6Medium14isMediaSessionEv
00317a4c T _ZNK6Medium20isServerMediaSessionEv
00317a54 T _ZNK6Medium16isDarwinInjectorEv
00317a5c T _ZN7_Tables17reclaimIfPossibleEv
00317aa4 T _ZN7_TablesD1Ev
00317ab4 T _ZNK16MediaLookupTable6lookupEPKc
00317ae0 T _ZN16MediaLookupTable6addNewEP6MediumPc
00317b14 T _ZN16MediaLookupTableD1Ev
00317b50 T _ZN16MediaLookupTableD0Ev
00317b9c T _ZN7_TablesD0Ev
00317bc4 T _ZN6MediumD0Ev
00317c18 T _ZN16MediaLookupTableC1ER16UsageEnvironment
00317c58 T _ZN16MediaLookupTable15generateNewNameEPcj
00317c8c T _ZN7_Tables12getOurTablesER16UsageEnvironmenth
00317ce8 T _ZN16MediaLookupTable6removeEPKc
00317da4 T _ZN16MediaLookupTable8ourMediaER16UsageEnvironment
00317e14 T _ZN6Medium5closeER16UsageEnvironmentPKc
00317e3c T _ZN6Medium5closeEPS_
00317e64 T _ZN6MediumC2ER16UsageEnvironment
00317ef4 T _ZN6NvtMgr8Get_PortEv
00317efc T _ZN6NvtMgr15Get_SendBufSizeEv
00317f10 T _ZN6NvtMgr17Get_TypeOfServiceEv
00317f18 T _ZN6NvtMgr17Get_TCPTimeOutSecEv
00317f20 T _ZN6NvtMgr18Get_MaxConnectionsEv
00317f28 T _ZN6NvtMgr10Set_UserCbEP14_NVTLIVE555_CB
00317f90 T _ZN6NvtMgr10Set_StrmCbEP9_ISTRM_CB
00317fd4 T _ZN6NvtMgr10Get_StrmCbEv
00317fdc T _ZN6NvtMgr10Get_UserCbEv
00317fe4 T _ZN6NvtMgr13IsSupportRtcpEv
00317fec T _ZN6NvtMgr12AuthenticateEPKcjPcj
00317ff4 T _ZN6NvtMgr15RequireKeyFrameEj
0031801c T _ZN6NvtMgr18GetNextMetaDataFrmEPcji
00318058 T _ZN6NvtMgr12RunCmdThreadEv
00318060 T _ZN6NvtMgr15SetQuitVariableEPc
0031806c T NvtMgr_GetHandle
00318078 T NvtMgr_DestroyMgr
003180cc T _ZN6NvtMgr9SendEventE21_LIVE555_SERVER_EVENT
00318128 T _ZN6NvtMgr14FlushJobSocketEv
00318154 T _ZN6NvtMgr14SetupJobSocketEv
00318358 T _ZN6NvtMgr10GlobalLockEv
00318378 T _ZN6NvtMgr9CancelJobEPNS_5_TASKE
00318400 T _ZN6NvtMgr7PullJobEPNS_5_TASKE
003184fc T _ZN6NvtMgr12GlobalUnlockEv
0031851c T _ZN6NvtMgr7PushJobEPNS_5_TASKE
003185fc T nvtrtspd_main
00318714 T _ZN6NvtMgr15Trans_UrlToInfoEP20_NVTLIVE555_URL_INFOPKc
00318748 T _ZN6NvtMgr19Get_NextPtsTimeDiffEP7timevalj
003187cc T _ZN6NvtMgr16xCalibratePtsOfsEP7timeval
00318888 T _ZN6NvtMgr11DispatchCmdEPv
00318bf4 T _ZN6NvtMgrD0Ev
00318ca8 T _ZN6NvtMgrD1Ev
00318d54 T _ZN6NvtMgrC1Ev
00318e98 T NvtMgr_CreateMgr
00318ef4 T _Z24StreamSenderFrmGetStrmCbv
00318f00 t _GLOBAL__I__Z24StreamSenderFrmGetStrmCbv
00318f14 t _GLOBAL__D__Z24StreamSenderFrmGetStrmCbv
00318f60 t _ZL8xIDbgCmd12_NVT_DBG_CMD
0031909c t _ZL9ThreadFpsj
00319204 t _ZL14xIGetAudioInfoiiiP15_NVT_AUDIO_INFO
00319418 t _ZL18xIReleaseAudioStrmii
00319434 t _ZL14xIGetAudioStrmiiiP14_NVT_STRM_INFO
003195e0 t _ZL14xIGetVideoInfoiiiP15_NVT_VIDEO_INFO
00319960 t _ZL18xIReleaseVideoStrmii
0031997c t _ZL14xIGetVideoStrmiiiP14_NVT_STRM_INFO
00319b38 t _ZL11xICloseStrmi
00319c94 t _ZL10xIOpenStrmiPv
00319d84 T _ZN16UsageEnvironment7reclaimEv
00319dc4 T _ZN16UsageEnvironmentC2ER13TaskScheduler
00319de0 T _ZN16UsageEnvironmentD2Ev
00319df0 T _ZN16UsageEnvironmentD1Ev
00319e00 T _ZN13TaskSchedulerC2Ev
00319e10 T _ZN13TaskSchedulerD2Ev
00319e20 T _ZN13TaskSchedulerD1Ev
00319e30 T _ZN13TaskScheduler21rescheduleDelayedTaskERPvxPFvS0_ES0_
00319e9c T _ZN13TaskScheduler13internalErrorEv
00319eac T _ZN16UsageEnvironment13internalErrorEv
00319ebc T _ZN13TaskSchedulerD0Ev
00319ee4 T _ZN16UsageEnvironmentD0Ev
00319f0c T _ZNK14BasicHashTable10numEntriesEv
00319f14 T _ZN14BasicHashTable8Iterator4nextERPKc
00319f88 T _ZNK14BasicHashTable16hashIndexFromKeyEPKc
0031a034 W _ZN14BasicHashTable8IteratorD1Ev
0031a05c W _ZN14BasicHashTable8IteratorD0Ev
0031a094 T _ZN14BasicHashTable7rebuildEv
0031a1b0 T _ZN14BasicHashTable9deleteKeyEPNS_10TableEntryE
0031a1f0 T _ZN14BasicHashTable11deleteEntryEjPNS_10TableEntryE
0031a298 T _ZN14BasicHashTable9assignKeyEPNS_10TableEntryEPKc
0031a354 T _ZN14BasicHashTable14insertNewEntryEjPKc
0031a3d4 T _ZNK14BasicHashTable10keyMatchesEPKcS1_
0031a47c T _ZNK14BasicHashTable9lookupKeyEPKcRj
0031a500 T _ZNK14BasicHashTable6LookupEPKc
0031a524 T _ZN14BasicHashTable6RemoveEPKc
0031a564 T _ZN14BasicHashTable3AddEPKcPv
0031a5e8 T _ZN14BasicHashTable8IteratorC1ERKS_
0031a62c T _ZN9HashTable8Iterator6createERKS_
0031a664 T _ZN14BasicHashTableD0Ev
0031a724 T _ZN14BasicHashTableD1Ev
0031a7dc T _ZN14BasicHashTableC1Ei
0031a854 T _ZN9HashTable6createEi
0031a88c T _ZN18BasicTaskScheduler17schedulerTickTaskEv
0031a8c4 T _ZN18BasicTaskScheduler17schedulerTickTaskEPv
0031a8e0 t _GLOBAL__I__ZN18BasicTaskScheduler9createNewEj
0031a94c T _ZN18BasicTaskScheduler18moveSocketHandlingEii
0031aabc T _ZN18BasicTaskScheduler21setBackgroundHandlingEiiPFvPviES0_
0031ac34 T _ZN18BasicTaskScheduler10SingleStepEj
0031b2f4 T _ZN18BasicTaskSchedulerD1Ev
0031b31c T _ZN18BasicTaskSchedulerD0Ev
0031b354 T _ZN18BasicTaskSchedulerC1Ej
0031b3ec T _ZN18BasicTaskScheduler9createNewEj
0031b424 t _GLOBAL__I__ZN21BasicUsageEnvironmentC2ER13TaskScheduler
0031b490 T _ZN21BasicUsageEnvironmentlsEPv
0031b4cc T _ZN21BasicUsageEnvironmentlsEd
0031b504 T _ZN21BasicUsageEnvironmentlsEj
0031b540 T _ZN21BasicUsageEnvironmentlsEi
0031b57c T _ZN21BasicUsageEnvironmentlsEPKc
0031b5e0 T _ZNK21BasicUsageEnvironment8getErrnoEv
0031b600 T _ZN21BasicUsageEnvironmentD1Ev
0031b628 T _ZN21BasicUsageEnvironmentD0Ev
0031b660 T _ZN21BasicUsageEnvironmentC1ER13TaskScheduler
0031b690 T _ZN21BasicUsageEnvironment9createNewER13TaskScheduler
0031b6c8 T _ZmlsRK13DelayInterval
0031b71c T _ZN15DelayQueueEntryC2E13DelayInterval
0031b758 T _ZN15DelayQueueEntryD2Ev
0031b768 T _ZN15DelayQueueEntryD1Ev
0031b778 T _ZN15DelayQueueEntry13handleTimeoutEv
0031b7a0 T _ZN10DelayQueue11removeEntryEP15DelayQueueEntry
0031b81c T _ZN10DelayQueueD1Ev
0031b89c T _ZN10DelayQueue11removeEntryEl
0031b900 t _GLOBAL__I__ZNK7TimevalgeERKS_
0031b9c4 T _Z7TimeNowv
0031ba04 T _ZN10DelayQueue11synchronizeEv
0031bb9c T _ZN10DelayQueue11handleAlarmEv
0031bc90 T _ZN10DelayQueue15timeToNextAlarmEv
0031bd08 T _ZN10DelayQueue8addEntryEP15DelayQueueEntry
0031be40 T _ZN10DelayQueueC1Ev
0031becc T _ZN15DelayQueueEntryD0Ev
0031bef4 T _ZN10DelayQueueD0Ev
0031bf78 t _ZL12createNewSMSR16UsageEnvironmentPKcPA9999_j
0031c268 T _ZN17DynamicRTSPServer24lookupServerMediaSessionEPKciS1_
0031c334 T _ZN17DynamicRTSPServerD1Ev
0031c35c T _ZN17DynamicRTSPServerD0Ev
0031c394 T _ZN17DynamicRTSPServerC1ER16UsageEnvironmenti4PortP26UserAuthenticationDatabasej
0031c3d4 T _ZN17DynamicRTSPServer9createNewER16UsageEnvironmentP26UserAuthenticationDatabasej
0031c498 T _ZN9HashTableC2Ev
0031c4a8 T _ZN9HashTableD2Ev
0031c4b8 T _ZN9HashTableD1Ev
0031c4c8 T _ZN9HashTable8IteratorC2Ev
0031c4d8 T _ZN9HashTable8IteratorD2Ev
0031c4e8 T _ZN9HashTable8IteratorD1Ev
0031c4f8 T _ZN9HashTable8getFirstEv
0031c548 T _ZN9HashTable10RemoveNextEv
0031c5c4 T _ZN9HashTable8IteratorD0Ev
0031c5ec T _ZN9HashTableD0Ev
0031c614 T _ZN14NetAddressList8IteratorC1ERKS_
0031c620 T _ZN14NetAddressList8Iterator11nextAddressEv
0031c658 T _ZN4PortC1Et
0031c670 T _ZlsR16UsageEnvironmentRK4Port
0031c6a4 T _ZN22AddressPortLookupTableD1Ev
0031c6e0 T _ZN22AddressPortLookupTable3AddEjj4PortPv
0031c720 T _ZN22AddressPortLookupTable6LookupEjj4Port
0031c75c T _ZN22AddressPortLookupTable6RemoveEjj4Port
0031c798 T _ZN22AddressPortLookupTable8IteratorD1Ev
0031c7d4 T _ZN22AddressPortLookupTable8Iterator4nextEv
0031c800 T _Z18IsMulticastAddressj
0031c840 T _ZN14NetAddressList5cleanEv
0031c8d0 T _ZN14NetAddressListD1Ev
0031c8f8 T _ZN10NetAddress5cleanEv
0031c934 T _ZN10NetAddressD1Ev
0031c95c T _ZN13AddressStringD1Ev
0031c98c T _ZN13AddressStringD0Ev
0031c9d0 T _ZN22AddressPortLookupTable8IteratorD0Ev
0031ca1c T _ZN22AddressPortLookupTableD0Ev
0031ca68 T _ZN14NetAddressListD0Ev
0031caa0 T _ZN10NetAddressD0Ev
0031cad8 T _ZN10NetAddress6assignEPKhj
0031cb60 T _ZN10NetAddressC1EPKhj
0031cb88 T _ZN13AddressString4initEj
0031cc08 T _ZN13AddressStringC1Ej
0031cc30 T _ZN13AddressStringC1ERK7in_addr
0031cc58 T _ZN13AddressStringC1ERK11sockaddr_in
0031cc80 T _ZN22AddressPortLookupTable8IteratorC1ERS_
0031ccb8 T _ZN22AddressPortLookupTableC1Ev
0031ccf0 T _ZN14NetAddressListC1EPKc
0031cea0 T _ZNK24NvtServerMediaSubsession8durationEv
0031cecc T _ZN24NvtServerMediaSubsession16GetPartnerFramerEv
0031cee0 T _ZN24NvtServerMediaSubsession13SetPartnerSmsEPS_
0031cee8 T _ZN24NvtServerMediaSubsession10GetRTPSinkEv
0031cef0 T _ZN24NvtServerMediaSubsession12GetMediaTypeEv
0031cef8 T _ZN24NvtServerMediaSubsession12GetVideoInfoEv
0031cf00 T _ZN24NvtServerMediaSubsession12GetAudioInfoEv
0031cf08 T _ZN24NvtServerMediaSubsession10GetUrlInfoEv
0031cf10 T _ZN24NvtServerMediaSubsession19NotifyFramerDeletedEv
0031cf18 T _ZN24NvtServerMediaSubsession17NotifySinkDeletedEv
0031cf20 T _ZN24NvtServerMediaSubsession16RefreshCodecInfoEj
0031cfc4 T _ZN24NvtServerMediaSubsession16seekStreamSourceEP12FramedSourceRddRy
0031d020 T _ZN24NvtServerMediaSubsession16createNewRTPSinkEP9GroupsockhP12FramedSource
0031d2c8 T _ZN24NvtServerMediaSubsession21createNewStreamSourceEjRj
0031d454 T _ZN24NvtServerMediaSubsessionD1Ev
0031d488 T _ZN24NvtServerMediaSubsessionD0Ev
0031d4d0 T _ZN24NvtServerMediaSubsessionC1EPNS_10_INIT_DATAE
0031d5bc T _ZN24NvtServerMediaSubsession9createNewEPNS_10_INIT_DATAE
0031d5f4 T _ZN15NvtStreamFramer12SetForceStopEh
0031d5fc T _ZN15NvtStreamFramer16IsContinueToNextEv
0031d608 T _ZN15NvtStreamFramer13IsPollingModeEv
0031d610 T _ZN15NvtStreamFramer22SetMaxOutputPacketSizeEj
0031d618 T _ZN15NvtStreamFramer12GetRtpPacketEv
0031d620 T _ZN19NvtStreamFramerMJPG4typeEv
0031d628 T _ZN19NvtStreamFramerMJPG7qFactorEv
0031d630 T _ZN19NvtStreamFramerMJPG5widthEv
0031d638 T _ZN19NvtStreamFramerMJPG6heightEv
0031d640 T _ZN19NvtStreamFramerMJPG18quantizationTablesERhRt
0031d658 T _ZN19NvtStreamFramerMJPG17GetSpecialHdrSizeEv
0031d660 T _ZN15NvtStreamFramer8DumpInfoEv
0031d774 T _ZN15NvtStreamFramer15AfterSendPacketEv
0031d7b0 T _ZN19NvtStreamFramerH26515AfterSendPacketEv
0031d7cc T _ZN19NvtStreamFramerH26415AfterSendPacketEv
0031d7e8 T _ZN19NvtStreamFramerMJPG15AfterSendPacketEv
0031d828 T _ZN15NvtStreamFramer12xDropCurrFrmEv
0031d86c T _ZN15NvtStreamFramer12xStopNextFrmEv
0031d88c T _ZN19NvtStreamFramerMeta14doGetNextFrameEv
0031daf0 T _ZN15NvtStreamFramer6ResumeEv
0031db90 T _ZN15NvtStreamFramer4SeekEjd
0031dc44 T _ZN15NvtStreamFramer5PauseEv
0031de20 T _ZN15NvtStreamFramer11xGetNextFrmEv
0031debc T _ZN19NvtStreamFramerH26514doGetNextFrameEv
0031e440 T _ZN19NvtStreamFramerG71114doGetNextFrameEv
0031e740 T _ZN18NvtStreamFramerAAC14doGetNextFrameEv
0031ea24 T _ZN18NvtStreamFramerPCM14doGetNextFrameEv
0031edbc T _ZN19NvtStreamFramerH26414doGetNextFrameEv
0031f4fc T _ZN19NvtStreamFramerMJPG14doGetNextFrameEv
0031f9b0 T _ZN15NvtStreamFramer10ThreadRecvEj
0031fbfc T _ZN15NvtStreamFramerD0Ev
0031fda0 T _ZN15NvtStreamFramerD1Ev
0031ff3c T _ZN15NvtStreamFramerD2Ev
003200d8 T _ZN19NvtStreamFramerH265D0Ev
00320110 T _ZN19NvtStreamFramerH265D1Ev
00320138 T _ZN19NvtStreamFramerMetaD0Ev
00320184 T _ZN19NvtStreamFramerMetaD1Ev
003201c8 T _ZN19NvtStreamFramerG711D0Ev
00320200 T _ZN19NvtStreamFramerG711D1Ev
00320228 T _ZN18NvtStreamFramerAACD0Ev
00320260 T _ZN18NvtStreamFramerAACD1Ev
00320288 T _ZN18NvtStreamFramerPCMD0Ev
003202c0 T _ZN18NvtStreamFramerPCMD1Ev
003202e8 T _ZN19NvtStreamFramerH264D0Ev
00320320 T _ZN19NvtStreamFramerH264D1Ev
00320348 T _ZN19NvtStreamFramerMJPGD0Ev
00320380 T _ZN19NvtStreamFramerMJPGD1Ev
003203a8 T _ZN15NvtStreamFramer7ExecuteEv
003204f8 T _ZN15NvtStreamFramerC2EPNS_10_INIT_DATAE
003206cc T _ZN19NvtStreamFramerH265C1EPN15NvtStreamFramer10_INIT_DATAE
00320718 T _ZN19NvtStreamFramerH2659createNewEPN15NvtStreamFramer10_INIT_DATAE
00320750 T _ZN19NvtStreamFramerMetaC1EPN15NvtStreamFramer10_INIT_DATAE
003207a0 T _ZN19NvtStreamFramerMeta9createNewEPN15NvtStreamFramer10_INIT_DATAE
003207d8 T _ZN19NvtStreamFramerG711C1EPN15NvtStreamFramer10_INIT_DATAE
00320808 T _ZN19NvtStreamFramerG7119createNewEPN15NvtStreamFramer10_INIT_DATAE
00320840 T _ZN18NvtStreamFramerAACC1EPN15NvtStreamFramer10_INIT_DATAE
00320870 T _ZN18NvtStreamFramerAAC9createNewEPN15NvtStreamFramer10_INIT_DATAE
003208a8 T _ZN18NvtStreamFramerPCMC1EPN15NvtStreamFramer10_INIT_DATAE
003208d8 T _ZN18NvtStreamFramerPCM9createNewEPN15NvtStreamFramer10_INIT_DATAE
00320910 T _ZN19NvtStreamFramerH264C1EPN15NvtStreamFramer10_INIT_DATAE
003209b0 T _ZN19NvtStreamFramerH2649createNewEPN15NvtStreamFramer10_INIT_DATAE
003209e8 T _ZN19NvtStreamFramerMJPGC1EPN15NvtStreamFramer10_INIT_DATAE
00320a38 T _ZN19NvtStreamFramerMJPG9createNewEPN15NvtStreamFramer10_INIT_DATAE
00320a70 T _ZN14NvtStreamQueue7get_bufEPvPNS_9_BUF_INFOE
00320b9c T _ZN14NvtStreamQueue4lockEv
00320c38 T _ZN14NvtStreamQueue5resetEv
00320cf8 T _ZN14NvtStreamQueue5closeEv
00320d48 T _ZN14NvtStreamQueue4openE15_NVT_CODEC_TYPE
00320e00 T _ZN14NvtStreamQueue4pullEv
00320e9c T _ZN14NvtStreamQueue6unlockEPv
00321084 T _ZN14NvtStreamQueue4pushEPvP14_NVT_STRM_INFO
00321234 T _ZN14NvtStreamQueueD0Ev
003212d0 T _ZN14NvtStreamQueueD1Ev
00321364 T _ZN14NvtStreamQueueC1Ev
00321408 T _ZN29OnDemandServerMediaSubsession10seekStreamEjPvRPcS2_
00321448 T _ZN29OnDemandServerMediaSubsession14setStreamScaleEjPvf
00321488 T _ZN29OnDemandServerMediaSubsession13getCurrentNPTEPv
0032151c T _ZN29OnDemandServerMediaSubsession15getStreamSourceEPv
00321534 T _ZN29OnDemandServerMediaSubsession13getAuxSDPLineEP7RTPSinkP12FramedSource
0032156c T _ZN29OnDemandServerMediaSubsession16seekStreamSourceEP12FramedSourceRddRy
00321574 T _ZN29OnDemandServerMediaSubsession20setStreamSourceScaleEP12FramedSourcef
0032157c T _ZN11StreamStateC1ER29OnDemandServerMediaSubsessionRK4PortS4_P7RTPSinkP12BasicUDPSinkjP12FramedSourceP9GroupsockSC_
00321618 T _ZN11StreamState5pauseEv
00321674 T _ZN29OnDemandServerMediaSubsession11pauseStreamEjPv
003216a4 T _ZN11StreamState7reclaimEv
0032174c T _ZN11StreamStateD1Ev
00321774 T _ZN29OnDemandServerMediaSubsession17closeStreamSourceEP12FramedSource
00321790 T _ZN11StreamState10endPlayingEP12Destinations
00321874 T _ZN11StreamState3byeEv
0032189c t _ZL23afterPlayingStreamStatePv
003218e0 T _ZN11StreamState12startPlayingEP12DestinationsPFvPvES2_PFvS2_hES2_
00321abc T _ZN11StreamStateD0Ev
00321af4 T _ZN29OnDemandServerMediaSubsession12deleteStreamEjRPv
00321bec T _ZN29OnDemandServerMediaSubsession16seekStreamSourceEP12FramedSourceRPcS3_
00321c40 T _ZN29OnDemandServerMediaSubsession22setSDPLinesFromRTPSinkEP7RTPSinkP12FramedSourcej
00321e24 T _ZN29OnDemandServerMediaSubsession14nullSeekStreamEjPv
00321e70 T _ZN29OnDemandServerMediaSubsession10seekStreamEjPvRddRy
00321f08 T _ZN29OnDemandServerMediaSubsession11startStreamEjPvPFvS0_ES0_RtRjPFvS0_hES0_
00321f8c T _ZN29OnDemandServerMediaSubsession19getStreamParametersEjjRK4PortS2_ihhRjRhS4_RS0_S5_RPv
003224b8 T _ZN29OnDemandServerMediaSubsession8sdpLinesEv
003225b4 T _ZN29OnDemandServerMediaSubsessionD0Ev
0032263c T _ZN29OnDemandServerMediaSubsessionD1Ev
003226bc T _ZN29OnDemandServerMediaSubsessionD2Ev
0032273c T _ZN29OnDemandServerMediaSubsessionC2ER16UsageEnvironmentht
003227b0 W _ZN18RTCPMemberDatabaseD1Ev
003227ec T _ZNK12RTCPInstance14isRTCPInstanceEv
003227f4 T _ZN12RTCPInstance12checkNewSSRCEv
0032287c T TypeOfEvent
00322894 T SentPacketSize
003228ac T PacketType
003228c4 T ReceivedPacketSize
003228dc T NewMember
0032290c T NewSender
00322914 T AddMember
0032291c T AddSender
00322924 T RemoveSender
0032292c T drand30
00322970 T _ZN8SDESItemC1EhPKh
003229d0 T _ZN12RTCPInstance20IsRtcpReceiveTimeoutEl
00322a24 T _ZN12RTCPInstance17NotifyRtcpReceiveEv
00322a44 t _ZL8dTimeNowv
00322ab8 T _ZN12RTCPInstance8scheduleEd
00322ba0 T Schedule
00322bcc T _ZN12RTCPInstance10rescheduleEd
00322c30 T Reschedule
00322c5c T _ZN12RTCPInstance9onExpire1Ev
00322de0 T _ZN12RTCPInstance8onExpireEPS_
00322dfc T _ZN12RTCPInstance6addBYEEv
00322e68 T _ZN12RTCPInstance25enqueueCommonReportPrefixEhjj
00322f00 T _ZN12RTCPInstance7addSDESEv
00322fc8 T _ZN12RTCPInstance18enqueueReportBlockEP17RTPReceptionStats
00323190 T _ZN12RTCPInstance25enqueueCommonReportSuffixEv
00323214 T _ZN12RTCPInstance5addRREv
00323250 T _ZN12RTCPInstance5addSREv
00323360 T _ZN12RTCPInstance9addReportEh
003233e0 T _ZN12RTCPInstance10removeSSRCEjh
00323484 T _ZN12RTCPInstance22removeLastReceivedSSRCEv
003234a4 T RemoveMember
003234c4 T _ZN12RTCPInstance15sendBuiltPacketEv
00323530 T _ZN12RTCPInstance7sendBYEEv
00323568 T SendBYEPacket
00323588 T _ZN12RTCPInstance9onReceiveEiij
00323620 T _ZN12RTCPInstance22incomingReportHandler1Ev
00323d98 T _ZN12RTCPInstance21incomingReportHandlerEPS_i
00323db4 T _ZN12RTCPInstance15addStreamSocketEih
00323e4c T _ZN12RTCPInstance22unsetSpecificRRHandlerEj4Port
00323ec4 W _ZN18RTCPMemberDatabaseD0Ev
00323f10 T _ZN12RTCPInstance20setSpecificRRHandlerEj4PortPFvPvES1_
00323fdc T _ZN12RTCPInstanceD0Ev
003240f0 T _ZN12RTCPInstanceD1Ev
003241fc T _ZN12RTCPInstanceC1ER16UsageEnvironmentP9GroupsockjPKhP7RTPSinkPK9RTPSourceh
003243fc T _ZN12RTCPInstance9createNewER16UsageEnvironmentP9GroupsockjPKhP7RTPSinkPK9RTPSourceh
00324488 T _ZN18RTCPMemberDatabase14reapOldMembersEj
0032455c T _ZN12RTCPInstance10sendReportEv
003245e4 T SendRTCPReport
00324640 T _ZN12RTPInterfaceD1Ev
0032467c T _ZN16SocketDescriptor18lookupRTPInterfaceEh
003246a8 T _ZN15tcpStreamRecordD1Ev
003246e4 T _ZN15tcpStreamRecordD0Ev
00324730 T _ZN12RTPInterfaceD0Ev
0032477c T _ZN16SocketDescriptor15tcpReadHandler1Ei
003249dc T _ZN16SocketDescriptor14tcpReadHandlerEPS_i
00324a60 T _ZN12RTPInterface10handleReadEPhjRjR11sockaddr_inRh
00324be4 t _ZL15socketHashTableR16UsageEnvironmenth
00324c40 T _ZN16SocketDescriptorC1ER16UsageEnvironmenti
00324c98 T _ZN12RTPInterface15sendDataOverTCPEiPKhjh
00324dec T _ZN12RTPInterface26sendRTPorRTCPPacketOverTCPEPhjih
00324f08 t _ZL22lookupSocketDescriptorR16UsageEnvironmentih
00325038 T _ZN12RTPInterface38setServerRequestAlternativeByteHandlerEiPFvPvhES0_
0032507c T _ZN12RTPInterface10sendPacketEPhjiPi
0032512c T _ZN12RTPInterfaceC1EP6MediumP9Groupsock
003251b8 T _ZN16SocketDescriptor20registerRTPInterfaceEhP12RTPInterface
00325254 T _ZN12RTPInterface19startNetworkReadingEPFvPviE
00325300 T _ZN12RTPInterface15addStreamSocketEih
003253c4 T _ZN16SocketDescriptor22deregisterRTPInterfaceEh
0032544c t _ZL16deregisterSocketR16UsageEnvironmentih
00325484 T _ZN12RTPInterface18removeStreamSocketEih
00325518 t _ZL23removeSocketDescriptionR16UsageEnvironmenti
003255b4 T _ZN12RTPInterface18stopNetworkReadingEv
00325640 T _ZN16SocketDescriptorD0Ev
00325758 T _ZN16SocketDescriptorD1Ev
00325868 T _ZNK7RTPSink9isRTPSinkEv
00325870 T _ZN7RTPSink22resetPresentationTimesEv
00325884 T _ZNK7RTPSink12sdpMediaTypeEv
00325890 T _ZN7RTPSink10auxSDPLineEv
00325898 T _ZNK22RTPTransmissionStatsDB6lookupEj
003258c4 T _ZN22RTPTransmissionStatsDB12removeRecordEj
00325938 T _ZN22RTPTransmissionStatsDB3addEjP20RTPTransmissionStats
0032597c T _ZN20RTPTransmissionStatsD1Ev
0032598c T _ZN20RTPTransmissionStats14noteIncomingRRERK11sockaddr_injjjjj
00325ad8 T _ZN20RTPTransmissionStatsC1ER7RTPSinkj
00325b68 T _ZN7RTPSink21convertToRTPTimestampE7timeval
00325d44 T _ZN7RTPSink19presetNextTimestampEv
00325d8c T _ZN20RTPTransmissionStatsD0Ev
00325db4 T _ZN22RTPTransmissionStatsDB14noteIncomingRREjRK11sockaddr_injjjjj
00325e68 T _ZN22RTPTransmissionStatsDBD0Ev
00325ee8 T _ZN22RTPTransmissionStatsDBD1Ev
00325f60 T _ZN22RTPTransmissionStatsDBC1ER7RTPSink
00325fa0 T _ZNK7RTPSink10rtpmapLineEv
003260a4 T _ZN7RTPSinkD0Ev
00326114 T _ZN7RTPSinkD1Ev
0032617c T _ZN7RTPSinkD2Ev
003261e4 T _ZN7RTPSinkC2ER16UsageEnvironmentP9GroupsockhjPKcj
003262f0 T _ZN19RTPReceptionStatsDB8IteratorD1Ev
0032632c T _ZN19RTPReceptionStatsDB8Iterator4nextEh
003263ac T _ZNK19RTPReceptionStatsDB6lookupEj
003263d8 T _ZN19RTPReceptionStatsDB12removeRecordEj
00326440 T _ZN19RTPReceptionStatsDB3addEjP17RTPReceptionStats
0032646c T _ZN17RTPReceptionStatsD1Ev
0032647c T _ZN17RTPReceptionStats4initEj
003264f4 T _ZN17RTPReceptionStatsC1Ej
0032651c T _ZNK17RTPReceptionStats6jitterEv
0032653c T _ZN17RTPReceptionStats14noteIncomingSREjjj
00326608 T _ZN17RTPReceptionStatsD0Ev
00326630 T _ZN19RTPReceptionStatsDB8IteratorD0Ev
0032667c T _ZN19RTPReceptionStatsDB8IteratorC1ERS_
003266b4 T _ZN19RTPReceptionStatsDB5resetEv
00326710 T _ZN19RTPReceptionStatsDB14noteIncomingSREjjjj
003267a8 T _ZN10RTSPServer24lookupServerMediaSessionEPKciS1_
003267d4 T _ZN10RTSPServer19allowedCommandNamesEv
003267e0 T _ZN10RTSPServer19weImplementREGISTEREv
003267e8 T _ZN10RTSPServer21implementCmd_REGISTEREPKcS1_i
003267f0 T _ZN10RTSPServer24specialClientAccessCheckEiR11sockaddr_inPKc
003267f8 T _ZN10RTSPServer28specialClientUserAccessCheckEiR11sockaddr_inPKcS3_
00326800 T _ZNK10RTSPServer12isRTSPServerEv
00326808 T _ZN10RTSPServer20RTSPClientConnection26handleHTTPCmd_StreamingGETEPKcS2_
0032682c T _ZN10RTSPServer20RTSPClientConnection24continueHandlingREGISTEREPNS0_17ParamsForREGISTERE
0032685c T _ZN10RTSPServer20RTSPClientConnection25continueHandlingREGISTER1EPNS0_17ParamsForREGISTERE
003268ec T _ZN10RTSPServer17RTSPClientSession12noteLivenessEv
0032694c T _ZN10RTSPServer17RTSPClientSessionC1ERS_jPNS_20RTSPClientConnectionE
003269a4 T _ZN10RTSPServer17RTSPClientSession18noteClientLivenessEPS0_
003269c0 T _ZN10RTSPServer17RTSPClientSession19reclaimStreamStatesEv
00326a58 T _ZN10RTSPServer20RTSPClientConnection17ParamsForREGISTERD1Ev
00326aa8 T _ZN10RTSPServer20RTSPClientConnection17ParamsForREGISTERD0Ev
00326b00 T _ZN10RTSPServer22createNewClientSessionEjPNS_20RTSPClientConnectionE
00326b54 T _ZN10RTSPServer20RTSPClientConnection17ParamsForREGISTERC1EPS0_PKcS4_h
00326bb4 T _ZN10RTSPServer20RTSPClientConnection15setRTSPResponseEPKcjS2_
00326c5c T _ZN10RTSPServer17RTSPClientSession23handleCmd_GET_PARAMETEREPNS_20RTSPClientConnectionEP21ServerMediaSubsessionPKc
00326c8c T _ZN10RTSPServer20RTSPClientConnection15setRTSPResponseEPKcS2_
00326d24 T _ZN10RTSPServer20RTSPClientConnection23handleCmd_GET_PARAMETEREPKc
00326d4c T _ZN10RTSPServer20RTSPClientConnection15setRTSPResponseEPKcj
00326db0 T _ZN10RTSPServer17RTSPClientSession23handleCmd_SET_PARAMETEREPNS_20RTSPClientConnectionEP21ServerMediaSubsessionPKc
00326dd8 T _ZN10RTSPServer17RTSPClientSession15handleCmd_PAUSEEPNS_20RTSPClientConnectionEP21ServerMediaSubsession
00326eac T _ZN10RTSPServer20RTSPClientConnection15setRTSPResponseEPKc
00326f00 T _ZN10RTSPServer17RTSPClientSession18handleCmd_TEARDOWNEPNS_20RTSPClientConnectionEP21ServerMediaSubsession
00327028 T _ZN10RTSPServer20RTSPClientConnection30handleCmd_unsupportedTransportEv
00327048 T _ZN10RTSPServer20RTSPClientConnection25handleCmd_sessionNotFoundEv
00327068 T _ZN10RTSPServer20RTSPClientConnection18handleCmd_notFoundEv
00327088 T _ZN10RTSPServer20RTSPClientConnection18handleCmd_REGISTEREPKcS2_h
0032717c T _ZN10RTSPServer20RTSPClientConnection23handleCmd_SET_PARAMETEREPKc
0032719c T _ZN10RTSPServer20RTSPClientConnection26handleHTTPCmd_TunnelingGETEPKc
00327244 T _ZN10RTSPServer20RTSPClientConnection22handleHTTPCmd_notFoundEv
0032727c T _ZN10RTSPServer20RTSPClientConnection26handleHTTPCmd_notSupportedEv
003272b4 T _ZN10RTSPServer20RTSPClientConnection22handleCmd_notSupportedEv
00327324 T _ZN10RTSPServer20RTSPClientConnection13handleCmd_badEv
00327380 T _ZN10RTSPServer20RTSPClientConnection17handleCmd_OPTIONSEv
00327404 t _ZL13lookForHeaderPKcS0_jPcj
003275ec T _ZN10RTSPServer20RTSPClientConnection22parseHTTPRequestStringEPcjS1_jS1_jS1_j
00327894 T _ZN10RTSPServer17RTSPClientSession23handleCmd_withinSessionEPNS_20RTSPClientConnectionEPKcS4_S4_S4_
00327c5c T _ZN10RTSPServer17RTSPClientSession15handleCmd_SETUPEPNS_20RTSPClientConnectionEPKcS4_S4_
0032879c T _ZN10RTSPServer20RTSPClientConnection16authenticationOKEPKcS2_S2_
00328854 T _ZN10RTSPServer20RTSPClientConnectionC1ERS_i11sockaddr_inj
00328958 T _ZN10RTSPServer25createNewClientConnectionEi11sockaddr_inj
003289e8 T _ZN10RTSPServer20RTSPClientConnectionC2ERS_i11sockaddr_inj
00328aec T _ZN10RTSPServer25incomingConnectionHandlerEi
00328d28 T _ZN10RTSPServer30incomingConnectionHandlerRTSP1Ev
00328d44 T _ZN10RTSPServer29incomingConnectionHandlerRTSPEPvi
00328d60 T _ZN10RTSPServerC2ER16UsageEnvironmenti4PortP26UserAuthenticationDatabasej
00328e60 T _ZN10RTSPServer14setUpOurSocketER16UsageEnvironmentR4Port
00328fa4 T _ZNK10RTSPServer13rtspURLPrefixEi
003290e0 T _ZNK10RTSPServer7rtspURLEPK18ServerMediaSessioni
00329170 T _ZN10RTSPServer17RTSPClientSession14handleCmd_PLAYEPNS_20RTSPClientConnectionEP21ServerMediaSubsessionPKc
00329bc0 T _ZN10RTSPServer20RTSPClientConnection18handleCmd_DESCRIBEEPKcS2_S2_
00329e8c T _ZN10RTSPServer24removeServerMediaSessionEP18ServerMediaSession
00329ef0 T _ZN10RTSPServer17RTSPClientSessionD0Ev
00329fec T _ZN10RTSPServer17RTSPClientSessionD1Ev
0032a0d4 T _ZN10RTSPServer24removeServerMediaSessionEPKc
0032a118 T _ZN10RTSPServer21addServerMediaSessionEP18ServerMediaSession
0032a188 T _ZN10RTSPServerD0Ev
0032a364 T _ZN10RTSPServerD1Ev
0032a538 T _ZN10RTSPServerD2Ev
0032a70c T _ZN10RTSPServer20RTSPClientConnection12closeSocketsEv
0032a7b8 T _ZN10RTSPServer17RTSPClientSession19livenessTimeoutTaskEPS0_
0032a840 T _ZN10RTSPServer20RTSPClientConnection18handleRequestBytesEi
0032b200 T _ZN10RTSPServer20RTSPClientConnection23changeClientInputSocketEiPKhj
0032b2f0 T _ZN10RTSPServer20RTSPClientConnection27handleHTTPCmd_TunnelingPOSTEPKcPKhj
0032b3b8 T _ZN10RTSPServer20RTSPClientConnection29handleAlternativeRequestByte1Eh
0032b45c T _ZN10RTSPServer20RTSPClientConnection28handleAlternativeRequestByteEPvh
0032b478 T _ZN10RTSPServer20RTSPClientConnection23incomingRequestHandler1Ev
0032b4cc T _ZN10RTSPServer20RTSPClientConnection22incomingRequestHandlerEPvi
0032b4e8 T _ZN10RTSPServer20RTSPClientConnectionD0Ev
0032b594 T _ZN10RTSPServer20RTSPClientConnectionD1Ev
0032b638 T _ZN10RTSPServer20RTSPClientConnectionD2Ev
0032b6dc T _ZN33RTSPServerSupportingHTTPStreaming43RTSPClientConnectionSupportingHTTPStreaming14afterStreamingEPv
0032b718 T _ZN33RTSPServerSupportingHTTPStreaming43RTSPClientConnectionSupportingHTTPStreamingD1Ev
0032b75c T _ZN33RTSPServerSupportingHTTPStreaming43RTSPClientConnectionSupportingHTTPStreamingD0Ev
0032b7a8 T _ZN33RTSPServerSupportingHTTPStreaming43RTSPClientConnectionSupportingHTTPStreamingC1ER10RTSPServeri11sockaddr_in
0032b830 T _ZN33RTSPServerSupportingHTTPStreaming25createNewClientConnectionEi11sockaddr_in
0032b8b8 T _ZN33RTSPServerSupportingHTTPStreamingD0Ev
0032b8f0 T _ZN33RTSPServerSupportingHTTPStreamingD1Ev
0032b918 T _ZN33RTSPServerSupportingHTTPStreamingD2Ev
0032b940 T _ZN33RTSPServerSupportingHTTPStreamingC2ER16UsageEnvironmenti4PortP26UserAuthenticationDatabasej
0032b980 t _ZL18lastModifiedHeaderPKc
0032bd24 T _ZN33RTSPServerSupportingHTTPStreaming43RTSPClientConnectionSupportingHTTPStreaming26handleHTTPCmd_StreamingGETEPKcS2_
0032c334 T _ZN18ServerMediaSession13addSubsessionEP21ServerMediaSubsession
0032c378 T _ZN18ServerMediaSession15testScaleFactorERf
0032c5ec T _ZNK18ServerMediaSession8durationEv
0032c748 T _ZNK18ServerMediaSession20isServerMediaSessionEv
0032c750 T _ZN29ServerMediaSubsessionIteratorC1ER18ServerMediaSession
0032c76c T _ZN29ServerMediaSubsessionIteratorD1Ev
0032c77c T _ZN29ServerMediaSubsessionIterator4nextEv
0032c798 T _ZN29ServerMediaSubsessionIterator5resetEv
0032c7a8 T _ZN21ServerMediaSubsession11pauseStreamEjPv
0032c7b0 T _ZN21ServerMediaSubsession10seekStreamEjPvRddRy
0032c7c8 T _ZN21ServerMediaSubsession14nullSeekStreamEjPv
0032c7d0 T _ZN21ServerMediaSubsession14setStreamScaleEjPvf
0032c7d8 T _ZN21ServerMediaSubsession13getCurrentNPTEPv
0032c7e0 T _ZN21ServerMediaSubsession15getStreamSourceEPv
0032c7e8 T _ZN21ServerMediaSubsession12deleteStreamEjRPv
0032c7f0 T _ZN21ServerMediaSubsession15testScaleFactorERf
0032c800 T _ZNK21ServerMediaSubsession8durationEv
0032c808 T _ZNK21ServerMediaSubsession20getAbsoluteTimeRangeERPcS1_
0032c814 T _ZNK21ServerMediaSubsession12rangeSDPLineEv
0032c934 T _ZN21ServerMediaSubsession7trackIdEv
0032c9a8 T _ZN21ServerMediaSubsession10seekStreamEjPvRPcS2_
0032c9f8 T _ZN18ServerMediaSession20deleteAllSubsessionsEv
0032ca2c T _ZN21ServerMediaSubsessionD1Ev
0032ca78 T _ZN21ServerMediaSubsessionD2Ev
0032cac4 T _ZN18ServerMediaSessionD1Ev
0032cb4c T _ZN21ServerMediaSubsessionD0Ev
0032cba0 T _ZN29ServerMediaSubsessionIteratorD0Ev
0032cbc8 T _ZN18ServerMediaSessionD0Ev
0032cc58 T _ZN21ServerMediaSubsessionC2ER16UsageEnvironment
0032cca0 T _ZN18ServerMediaSession22generateSDPDescriptionEv
0032cf84 T _ZN18ServerMediaSessionC1ER16UsageEnvironmentPKcS3_S3_hS3_
0032d104 T _ZN18ServerMediaSession9createNewER16UsageEnvironmentPKcS3_S3_hS3_
0032d188 T _Z10strDupSizePKc
0032d1c0 T _Z6strDupPKc
0032d22c T _ZN13TCPStreamSink13processBufferEv
0032d3cc T _ZN13TCPStreamSink19ourOnSourceClosure1Ev
0032d3e8 T _ZN13TCPStreamSink18ourOnSourceClosureEPv
0032d404 T _ZN13TCPStreamSink17afterGettingFrameEjj
0032d498 T _ZN13TCPStreamSink17afterGettingFrameEPvjj7timevalj
0032d4b4 T _ZN13TCPStreamSink22socketWritableHandler1Ev
0032d50c T _ZN13TCPStreamSink21socketWritableHandlerEPvi
0032d528 T _ZN13TCPStreamSink15continuePlayingEv
0032d554 T _ZN13TCPStreamSinkD1Ev
0032d57c T _ZN13TCPStreamSinkD0Ev
0032d5b4 T _ZN13TCPStreamSinkC1ER16UsageEnvironmenti
0032d604 T _ZN13TCPStreamSink9createNewER16UsageEnvironmenti
0032d648 T _Z12base64EncodePKcj
0032d85c T _Z12base64DecodePKcjRjh
0032da9c T _ZN19BasicTaskScheduler011doEventLoopEPc
0032daf4 T _ZN19BasicTaskScheduler018createEventTriggerEPFvPvE
0032db58 T _ZN19BasicTaskScheduler018deleteEventTriggerEj
0032dbd4 T _ZN19BasicTaskScheduler012triggerEventEjPv
0032dc14 T _ZN17HandlerDescriptorD1Ev
0032dc3c T _ZN10HandlerSetD1Ev
0032dcbc T _ZN10HandlerSet12clearHandlerEi
0032dd18 T _ZN10HandlerSet11moveHandlerEii
0032dd50 T _ZN15HandlerIteratorC1ER10HandlerSet
0032dd6c T _ZN15HandlerIteratorD1Ev
0032dd7c T _ZN15HandlerIterator5resetEv
0032dd8c T _ZN15HandlerIterator4nextEv
0032ddb4 t _GLOBAL__I__ZN19BasicTaskScheduler0C2Ev
0032de20 T _ZN15HandlerIteratorD0Ev
0032de48 T _ZN17HandlerDescriptorD0Ev
0032de84 T _ZN10HandlerSetD0Ev
0032df0c T _ZN10HandlerSet13assignHandlerEiiPFvPviES0_
0032dfc8 T _ZN19BasicTaskScheduler021unscheduleDelayedTaskERPv
0032e010 T _ZN19BasicTaskScheduler019scheduleDelayedTaskExPFvPvES0_
0032e0ec W _ZN12AlarmHandler13handleTimeoutEv
0032e120 W _ZN12AlarmHandlerD0Ev
0032e158 W _ZN12AlarmHandlerD1Ev
0032e180 T _ZN19BasicTaskScheduler0D0Ev
0032e1dc T _ZN19BasicTaskScheduler0D1Ev
0032e230 T _ZN19BasicTaskScheduler0D2Ev
0032e284 T _ZN19BasicTaskScheduler0C2Ev
0032e338 T _ZN12BasicUDPSink18afterGettingFrame1Ejjj
0032e4dc T _ZN12BasicUDPSink17afterGettingFrameEPvjj7timevalj
0032e500 T _ZN12BasicUDPSink16continuePlaying1Ev
0032e548 T _ZN12BasicUDPSink8sendNextEPv
0032e564 T _ZN12BasicUDPSink15continuePlayingEv
0032e59c T _ZN12BasicUDPSinkD1Ev
0032e5e0 T _ZN12BasicUDPSinkD0Ev
0032e62c T _ZN12BasicUDPSinkC1ER16UsageEnvironmentP9Groupsockj
0032e680 T _ZN12BasicUDPSink9createNewER16UsageEnvironmentP9Groupsockj
0032e6d4 T _ZNK22BasicUsageEnvironment012getResultMsgEv
0032e6dc T _ZN22BasicUsageEnvironment012setResultMsgEPKc
0032e708 T _ZN22BasicUsageEnvironment012setResultMsgEPKcS1_
0032e750 T _ZN22BasicUsageEnvironment012setResultMsgEPKcS1_S1_
0032e798 t _GLOBAL__I__ZN22BasicUsageEnvironment0C2ER13TaskScheduler
0032e804 T _ZN22BasicUsageEnvironment021reportBackgroundErrorEv
0032e838 T _ZN22BasicUsageEnvironment017appendToResultMsgEPKc
0032e8b0 T _ZN22BasicUsageEnvironment015setResultErrMsgEPKci
0032e91c T _ZN22BasicUsageEnvironment0D1Ev
0032e944 T _ZN22BasicUsageEnvironment0D2Ev
0032e96c T _ZN22BasicUsageEnvironment0D0Ev
0032e9a4 T _ZN22BasicUsageEnvironment0C2ER13TaskScheduler
0032e9e4 T _ZN28ByteStreamMemoryBufferSource14doGetNextFrameEv
0032ec18 T _ZN28ByteStreamMemoryBufferSourceD1Ev
0032ec68 T _ZN28ByteStreamMemoryBufferSourceD0Ev
0032ecc0 T _ZN28ByteStreamMemoryBufferSourceC1ER16UsageEnvironmentPhyhjj
0032ed40 T _ZN28ByteStreamMemoryBufferSource9createNewER16UsageEnvironmentPhyhjj
0032edec T _ZN13Authenticator25assignUsernameAndPasswordEPKcS1_h
0032ee3c T _ZN13Authenticator19assignRealmAndNonceEPKcS1_
0032ee7c T _ZN13Authenticator6assignEPKcS1_S1_S1_h
0032eec8 T _ZN13AuthenticatorC1Ev
0032ef00 T _ZN13Authenticator24resetUsernameAndPasswordEv
0032ef50 T _ZN13Authenticator18resetRealmAndNonceEv
0032ef9c T _ZN13Authenticator5resetEv
0032efc8 T _ZN13AuthenticatorD1Ev
0032eff0 T _ZN13AuthenticatorD0Ev
0032f028 T _ZN25FileServerMediaSubsessionD1Ev
0032f06c T _ZN25FileServerMediaSubsessionD2Ev
0032f0b0 T _ZN25FileServerMediaSubsessionD0Ev
0032f0fc T _ZN25FileServerMediaSubsessionC2ER16UsageEnvironmentPKch
0032f15c T _ZNK12FramedFilter8MIMEtypeEv
0032f19c T _ZNK12FramedFilter13getAttributesEv
0032f1cc T _ZN12FramedFilter19doStopGettingFramesEv
0032f204 T _ZN12FramedFilterD1Ev
0032f240 T _ZN12FramedFilterD2Ev
0032f27c T _ZN12FramedFilterD0Ev
0032f2c0 T _ZN12FramedFilterC2ER16UsageEnvironmentP12FramedSource
0032f2fc T _ZNK12FramedSource14isFramedSourceEv
0032f304 T _ZN12FramedSource12getNextFrameEPhjPFvPvjj7timevaljES1_PFvS1_ES1_
0032f3ec T _ZN12FramedSource12afterGettingEPS_
0032f43c T _ZN12FramedSource10dropPacketEv
0032f444 T _ZN12FramedSource13handleClosureEPv
0032f47c T _ZN12FramedSource17stopGettingFramesEv
0032f4a4 T _ZN12FramedSource19doStopGettingFramesEv
0032f4d8 T _ZNK12FramedSource12maxFrameSizeEv
0032f4e0 T _ZN12FramedSourceD1Ev
0032f508 T _ZN12FramedSourceD2Ev
0032f530 T _ZN12FramedSourceD0Ev
0032f568 T _ZN12FramedSourceC2ER16UsageEnvironment
0032f5b4 t _ZL9socketErrR16UsageEnvironmentPKc
0032f5d8 T _Z13getSourcePortR16UsageEnvironmentiR4Port
0032f728 T _Z19socketLeaveGroupSSMR16UsageEnvironmentijj
0032f7b8 T _Z16socketLeaveGroupR16UsageEnvironmentij
0032f834 T _Z15socketJoinGroupR16UsageEnvironmentij
0032f8c4 t _ZL13getBufferSizeR16UsageEnvironmentii
0032f928 t _ZL16increaseBufferToR16UsageEnvironmentiij
0032fa04 T _Z20increaseSendBufferToR16UsageEnvironmentij
0032fa28 T _Z11writeSocketR16UsageEnvironmenti7in_addr4PorthPhjPi
0032fb7c T _Z10readSocketR16UsageEnvironmentiPhjR11sockaddr_in
0032fc64 t _ZL12createSocketi
0032fcb0 T _Z18makeSocketBlockingi
0032fcdc T _Z21makeSocketNonBlockingi
0032fd0c T _Z20reclaimGroupsockPrivR16UsageEnvironment
0032fd58 T _Z13groupsockPrivR16UsageEnvironment
0032fda8 T _Z17setupStreamSocketR16UsageEnvironment4Porth
0032ff48 T _Z19setupDatagramSocketR16UsageEnvironment4Port
0033017c T _Z12ourIPAddressR16UsageEnvironment
0033056c T _ZN7NoReuseD1Ev
003305a4 T _ZN7NoReuseC1ER16UsageEnvironment
003305c8 W ctime
00330cd4 T _Z15timestampStringv
00330d78 T _ZN12OutputSocket10handleReadEPhjRjR11sockaddr_in
00330d80 T _ZN9Groupsock17removeDestinationERK7in_addrRK4Port
00330e08 T _ZN9Groupsock21removeAllDestinationsEv
00330e48 T _ZN9Groupsock17multicastSendOnlyEv
00330e50 t _GLOBAL__I__ZN12OutputSocketC2ER16UsageEnvironment
00330e94 T _ZlsR16UsageEnvironmentRK9Groupsock
0033108c T _ZN9Groupsock24outputToAllMembersExceptEP20DirectedNetInterfacehPhjj
003312b8 T _ZN9Groupsock19wasLoopedBackFromUsER16UsageEnvironmentR11sockaddr_in
00331320 T _ZN9Groupsock10handleReadEPhjRjR11sockaddr_in
003315b8 T _ZN10destRecordC1ERK7in_addrRK4PorthPS_
00331658 T _ZN9Groupsock14addDestinationERK7in_addrRK4Port
003316fc T _ZN10destRecordD1Ev
00331748 T _ZN10destRecordD0Ev
0033179c T _ZN12OutputSocket5writeEj4PorthPhjiPi
00331924 T _ZN9Groupsock6outputER16UsageEnvironmenthPhjP20DirectedNetInterfaceiPi
00331b88 T _ZN12OutputSocketD0Ev
00331bc0 T _ZN12OutputSocketD1Ev
00331be8 T _ZN12OutputSocketD2Ev
00331c10 T _ZN9GroupsockD0Ev
00331d14 T _ZN9GroupsockD1Ev
00331e10 T _ZN12OutputSocketC2ER16UsageEnvironment4Port
00331e50 T _ZN9GroupsockC1ER16UsageEnvironmentRK7in_addr4Porth
0033200c T our_random
00332114 T our_srandom
003321f4 T our_random32
00332238 T our_inet_addr
00332254 T _ZNK9MediaSink6isSinkEv
0033225c T _ZN9MediaSink24sourceIsCompatibleWithUsER11MediaSource
00332280 T _ZN9MediaSink15onSourceClosureEPv
003322a8 T _ZNK9MediaSink9isRTPSinkEv
003322b0 T _ZN15OutPacketBuffer9skipBytesEj
003322dc T _ZN15OutPacketBuffer15setOverflowDataEjjRK7timevalj
00332300 T _ZN15OutPacketBuffer17adjustPacketStartEj
00332330 T _ZN15OutPacketBuffer16resetPacketStartEv
00332354 T _ZN15OutPacketBuffer7extractEPhjj
0033239c T _ZN15OutPacketBuffer11extractWordEj
003323e8 T _ZN15OutPacketBuffer6insertEPKhjj
00332464 T _ZN15OutPacketBuffer10insertWordEjj
003324b0 T _ZN15OutPacketBuffer7enqueueEPKhj
00332518 T _ZN15OutPacketBuffer15useOverflowDataEv
0033256c T _ZN15OutPacketBuffer11enqueueWordEj
003325b4 T _ZN15OutPacketBufferD1Ev
003325dc T _ZN15OutPacketBufferC1Ejj
00332640 T _ZN9MediaSink11stopPlayingEv
00332698 T _ZN9MediaSink12startPlayingER11MediaSourcePFvPvES2_
003327a8 T _ZN9MediaSinkD1Ev
003327e0 T _ZN9MediaSinkD2Ev
00332818 T _ZN9MediaSinkD0Ev
00332858 T _ZN9MediaSinkC2ER16UsageEnvironment
0033288c T _ZNK11MediaSource8isSourceEv
00332894 T _ZNK11MediaSource8MIMEtypeEv
003328a0 T _ZNK11MediaSource14isFramedSourceEv
003328a8 T _ZNK11MediaSource11isRTPSourceEv
003328b0 T _ZNK11MediaSource27isMPEG1or2VideoStreamFramerEv
003328b8 T _ZNK11MediaSource24isMPEG4VideoStreamFramerEv
003328c0 T _ZNK11MediaSource23isH264VideoStreamFramerEv
003328c8 T _ZNK11MediaSource21isDVVideoStreamFramerEv
003328d0 T _ZNK11MediaSource17isJPEGVideoSourceEv
003328d8 T _ZNK11MediaSource16isAMRAudioSourceEv
003328e0 T _ZNK11MediaSource13getAttributesEv
00332910 T _ZN11MediaSourceD1Ev
00332938 T _ZN11MediaSourceD2Ev
00332960 T _ZN11MediaSourceD0Ev
00332998 T _ZN11MediaSourceC2ER16UsageEnvironment
003329c8 T _ZNK18MultiFramedRTPSink28allowFragmentationAfterStartEv
003329d0 T _ZNK18MultiFramedRTPSink33allowOtherFramesAfterLastFragmentEv
003329d8 T _ZNK18MultiFramedRTPSink30frameCanAppearAfterPacketStartEPKhj
003329e0 T _ZNK18MultiFramedRTPSink17specialHeaderSizeEv
003329e8 T _ZNK18MultiFramedRTPSink23frameSpecificHeaderSizeEv
003329f0 T _ZNK18MultiFramedRTPSink26computeOverflowForNewFrameEj
00332a08 T _ZN18MultiFramedRTPSink22NotifyFinishSendPacketEv
00332a10 T _ZNK18MultiFramedRTPSink18isTooBigForAPacketEj
00332a78 T _ZN18MultiFramedRTPSink21sendPacketIfNecessaryEv
00332d80 T _ZN18MultiFramedRTPSink16ourHandleClosureEPv
00332da0 T _ZN18MultiFramedRTPSink9packFrameEv
00332eac T _ZN18MultiFramedRTPSink18afterGettingFrame1Ejj7timevalj
00333460 T _ZN18MultiFramedRTPSink17afterGettingFrameEPvjj7timevalj
0033348c T _ZN18MultiFramedRTPSink18buildAndSendPacketEh
00333534 T _ZN18MultiFramedRTPSink7sendNewEPv
00333550 T _ZN18MultiFramedRTPSink8sendNextEPv
0033356c T _ZN18MultiFramedRTPSink15continuePlayingEv
0033358c T _ZN18MultiFramedRTPSink11stopPlayingEv
003335e4 T _ZN18MultiFramedRTPSink12setMarkerBitEv
00333624 T _ZN18MultiFramedRTPSink21setSpecialHeaderBytesEPKhjj
00333648 T _ZN18MultiFramedRTPSink12setTimestampE7timeval
00333688 T _ZN18MultiFramedRTPSink22doSpecialFrameHandlingEjPhj7timevalj
003336b4 T _ZN18MultiFramedRTPSinkD0Ev
00333710 T _ZN18MultiFramedRTPSinkD1Ev
00333764 T _ZN18MultiFramedRTPSinkD2Ev
003337b8 T _ZN18MultiFramedRTPSink14setPacketSizesEjj
00333848 T _ZN18MultiFramedRTPSinkC2ER16UsageEnvironmentP9GroupsockhjPKcj
003338d0 T _ZN12NetInterfaceD1Ev
003338e0 T _ZN23DirectedNetInterfaceSetD1Ev
0033391c T _ZN23DirectedNetInterfaceSet8IteratorD1Ev
00333958 T _ZN23DirectedNetInterfaceSet8Iterator4nextEv
00333984 T _ZN24NetInterfaceTrafficStatsC1Ev
00333994 T _ZN24NetInterfaceTrafficStats11countPacketEj
003339ec T _ZN23DirectedNetInterfaceSet8IteratorD0Ev
00333a38 T _ZN23DirectedNetInterfaceSetD0Ev
00333a84 T _ZN12NetInterfaceD0Ev
00333aac T _ZN23DirectedNetInterfaceSetC1Ev
00333ae4 T _ZN6SocketD0Ev
00333b94 T _ZN6SocketD1Ev
00333c34 T _ZN6SocketD2Ev
00333cd4 T _ZNK6Socket9socketNumEi
00333d1c T _ZlsR16UsageEnvironmentRK6Socket
00333db4 T _ZN6SocketC2ER16UsageEnvironment4Port
00333e74 T _ZN23DirectedNetInterfaceSet8IteratorC1ERS_
00333eac W _ZNK15NvtRTPSinkVideo12sdpMediaTypeEv
00333eb8 W _ZNK15NvtRTPSinkAudio12sdpMediaTypeEv
00333ec4 W _ZNK14NvtRTPSinkMeta12sdpMediaTypeEv
00333ed0 T _ZN10NvtRTPSink11ResetBufferEv
00333edc T _ZN10NvtRTPSink13GetDstAddressEv
00333f08 T _ZN10NvtRTPSink9GetFramerEv
00333f10 T _ZNK10NvtRTPSink30frameCanAppearAfterPacketStartEPKhj
00333f18 T _ZN10NvtRTPSink22NotifyFinishSendPacketEv
00333f44 T _ZN14NvtRTPSinkH26527removeH264or5EmulationBytesEPhjPKhj
00333ff4 T _ZNK13NvtRTPSinkAAC17specialHeaderSizeEv
00333ffc T _ZN13NvtRTPSinkAAC10auxSDPLineEv
00334140 T _ZN14NvtRTPSinkH26510auxSDPLineEv
00334464 T _ZN14NvtRTPSinkH26410auxSDPLineEv
00334614 T _ZNK14NvtRTPSinkMJPG17specialHeaderSizeEv
00334630 T _ZN10NvtRTPSink22doSpecialFrameHandlingEjPhj7timevalj
00334674 T _ZN13NvtRTPSinkAAC22doSpecialFrameHandlingEjPhj7timevalj
00334720 T _ZN14NvtRTPSinkMJPG22doSpecialFrameHandlingEjPhj7timevalj
003348d0 T _ZN10NvtRTPSink24sourceIsCompatibleWithUsER11MediaSource
00334970 T _ZN10NvtRTPSink12SetForceStopEv
00334998 T _ZN10NvtRTPSink15OnSendErrorFuncEPv
003349e4 T _ZN10NvtRTPSinkD0Ev
00334a5c T _ZN10NvtRTPSinkD1Ev
00334ac4 T _ZN10NvtRTPSinkD2Ev
00334b2c T _ZN14NvtRTPSinkMetaD0Ev
00334b64 T _ZN14NvtRTPSinkMetaD1Ev
00334b8c T _ZN15NvtRTPSinkAudioD0Ev
00334bc4 T _ZN15NvtRTPSinkAudioD1Ev
00334bec T _ZN15NvtRTPSinkAudioD2Ev
00334c14 T _ZN14NvtRTPSinkG711D0Ev
00334c4c T _ZN14NvtRTPSinkG711D1Ev
00334c74 T _ZN13NvtRTPSinkAACD0Ev
00334cc0 T _ZN13NvtRTPSinkAACD1Ev
00334d04 T _ZN13NvtRTPSinkPCMD0Ev
00334d3c T _ZN13NvtRTPSinkPCMD1Ev
00334d64 T _ZN15NvtRTPSinkVideoD0Ev
00334d9c T _ZN15NvtRTPSinkVideoD1Ev
00334dc4 T _ZN15NvtRTPSinkVideoD2Ev
00334dec T _ZN14NvtRTPSinkH265D0Ev
00334e38 T _ZN14NvtRTPSinkH265D1Ev
00334e7c T _ZN14NvtRTPSinkH264D0Ev
00334ec8 T _ZN14NvtRTPSinkH264D1Ev
00334f0c T _ZN14NvtRTPSinkMJPGD0Ev
00334f44 T _ZN14NvtRTPSinkMJPGD1Ev
00334f6c T _ZN10NvtRTPSinkC2EPNS_10_INIT_DATAE
0033511c T _ZN14NvtRTPSinkMetaC1EPN10NvtRTPSink10_INIT_DATAE
0033514c T _ZN14NvtRTPSinkMeta9createNewEPN10NvtRTPSink10_INIT_DATAE
00335184 T _ZN15NvtRTPSinkAudioC2EPN10NvtRTPSink10_INIT_DATAE
003351b4 T _ZN14NvtRTPSinkG711C1EPN10NvtRTPSink10_INIT_DATAE
003351e4 T _ZN14NvtRTPSinkG7119createNewEPN10NvtRTPSink10_INIT_DATAE
0033521c T _ZN13NvtRTPSinkAACC1EPN10NvtRTPSink10_INIT_DATAE
00335250 T _ZN13NvtRTPSinkAAC9createNewEPN10NvtRTPSink10_INIT_DATAE
00335288 T _ZN13NvtRTPSinkPCMC1EPN10NvtRTPSink10_INIT_DATAE
003352b8 T _ZN13NvtRTPSinkPCM9createNewEPN10NvtRTPSink10_INIT_DATAE
003352f0 T _ZN15NvtRTPSinkVideoC2EPN10NvtRTPSink10_INIT_DATAE
00335320 T _ZN14NvtRTPSinkH265C1EPN10NvtRTPSink10_INIT_DATAE
00335354 T _ZN14NvtRTPSinkH2659createNewEPN10NvtRTPSink10_INIT_DATAE
0033538c T _ZN14NvtRTPSinkH264C1EPN10NvtRTPSink10_INIT_DATAE
003353c0 T _ZN14NvtRTPSinkH2649createNewEPN10NvtRTPSink10_INIT_DATAE
003353f8 T _ZN14NvtRTPSinkMJPGC1EPN10NvtRTPSink10_INIT_DATAE
00335430 T _ZN14NvtRTPSinkMJPG9createNewEPN10NvtRTPSink10_INIT_DATAE
00335468 T OnReceive
0033583c T rtcp_interval
00335a00 T OnExpire
00335d08 T _Z21ignoreSigPipeOnSocketi
00335d10 T _Z15parseRangeParamPKcRdS1_RPcS3_
00335fc8 T _Z16parseRangeHeaderPKcRdS1_RPcS3_
003360ac T _Z22parseRTSPRequestStringPKcjPcjS1_jS1_jS1_jS1_jRj
003368f0 T _Z10dateHeaderv
00336c88 T _ZNK8GroupEId5isSSMEv
00336c98 T _ZN5Scope5cleanEv
00336cd0 T _ZN5ScopeD1Ev
00336cec T _ZN5Scope6assignEhPKc
00336d44 T _ZN5ScopeaSERKS_
00336dc8 T _ZN5ScopeC1EhPKc
00336de4 T _ZN8GroupEIdC1ERK7in_addrtRK5Scopej
00336e68 T _ZN6LocaleC1EPKc14LocaleCategory
00336e78 T _ZN6LocaleD1Ev
00336e88 T _ZN6LocaleD0Ev
00336eb0 T cc_registerCore1Handler
00336ebc T cc_registerCore3Handler
00336ec8 T cc_getCore1CMD
00336f00 T cc_getCore3CMD
00336f38 T cc_getHwResGrant
00336fb0 T cc_hwUnlockResource
0033708c T cc_hwLockResource
003371c0 T cc_ackCore3CMD
003371fc T cc_ackCore1CMD
00337238 T cc_sendCore3CMD
00337328 T cc_sendCore1CMD
00337418 t cc_dsr
003374c4 T cc_open
00337574 t cc_isr
003375a4 t ethcamboot_tftp_write
003375ac t ethcamboot_tftp_read
003375d0 t ethcamboot_tftp_close
00337604 t ethcamboot_tftp_open
003376d4 T EthcamBoot_CmdLine
00337900 T wakeup_register_handler
0033793c T wakeup_feed
00337984 T wakeup_start
003379cc T wakeup_new
00337a44 T set_memory_pool
00337a68 T mem_malloc
00337b04 T wtk_mem_malloc
00337b2c T wtk_mem_calloc
00337b90 T wtk_wakeup_register_handler
00337bc0 t _wakeup_restart_all
00337cb4 T wtk_wakeup_reset
00337d08 t _wakeup_post_wakeup_status
00337d94 t _wakeup_feed_data
00337e30 T wtk_wakeup_feed
00337edc T wtk_wakeup_start
00337f58 T wtk_wakeup_new
00337ffc T wtk_wakeup_cfg_init
00338028 T wtk_wakeup_cfg_update2
00338080 T wtk_wakeup_cfg_update
003380b0 T wtk_wakeup_cfg_update_local
00338114 T wtk_wakeup_module_frame_robin_reset
0033813c T wtk_wakeup_module_frame_robin_push
00338228 T wtk_wakeup_module_frame_robin_delete
00338244 T wtk_wakeup_module_frame_robin_new
003382dc T wtk_strbuf_expand
00338374 T wtk_strbuf_push
0033840c T wtk_strbuf_push_f
0033849c T wtk_strbuf_new
00338528 T wtk_strbuf_reset2
0033856c T wtk_wakeup_env_parse
00339010 T wtk_wakeup_env_new
003390a8 T wtk_wakeup_dnn_cfg_update2
003390ec T wtk_wakeup_dnn_cfg_update_local
003391bc T wtk_wakeup_dnn_cfg_init
0033929c t fxlog_q31
00339534 T wtk_wakeup_dnn_get_result
00339554 t _wakeup_dnn_score
0033a54c T _wakeup_dnn_score_post_process
0033a86c T wtk_wakeup_dnn_feed
0033ac5c T wtk_wakeup_dnn_start
0033adb0 T wtk_wakeup_dnn_reset
0033ae8c T wtk_wakeup_dnn_delete
0033af78 T wtk_wakeup_dnn_new
0033b0fc T wtk_queue_delete
0033b11c T wtk_queue_init2
0033b150 T wtk_queue_push
0033b1cc T wtk_queue_pop
0033b224 T wtk_queue_new
0033b270 T wtk_string_new
0033b2c0 T wtk_string_dup_data2
0033b338 T wtk_string_dup_data
0033b3a0 T wtk_feature_delete
0033b3c0 T wtk_frv_delete
0033b3e0 T wtk_frv_push_back
0033b418 T wtk_frv_new
0033b48c T wtk_feature_new
0033b4f4 T wtk_feature_new2
0033b52c T wtk_parm_cfg_update_local
0033b568 T wtk_parm_cfg_update2
0033b884 T wtk_parm_cfg_init
0033b9d8 T wtk_parm_pop_feature
0033ba2c T wtk_parm_output_frv_to_queue
0033ba60 T wtk_parm_output_feature_to_queue
0033baa0 T wtk_parm_push_frv
0033bad0 T wtk_parm_flush_frv_queue
0033bb30 T wtk_parm_reuse_frv
0033bb58 T wtk_parm_push_feature
0033bb90 T wtk_parm_reuse_feature
0033bbc4 T wtk_parm_flush_robin_all
0033bc30 T wtk_parm_flush_robins
0033bc9c T wtk_parm_feed_end
0033bcd8 T wtk_parm_flush_robin
0033bd28 T wtk_parm_flush_feature
0033bf24 T wtk_parm_feed_feature
0033c044 T wtk_parm_feed_input_feature
0033c070 T wtk_parm_feed_sample
0033c0d4 T wtk_parm_feed2
0033c1c4 T wtk_parm_feed
0033c1f0 T wtk_parm_reset
0033c2c0 T wtk_parm_new_frv
0033c308 T wtk_parm_frv_alloc
0033c384 T wtk_parm_new_feature
0033c3d0 T wtk_parm_feature_alloc
0033c438 T wtk_parm_clean
0033c530 T wtk_parm_delete
0033c55c T wtk_parm_init
0033c728 T wtk_parm_new2
0033c778 T wtk_parm_new
0033c7a0 T wtk_vad2_feed
0033c800 T wtk_vad2_raise_frv
0033c830 T wtk_vad2_flush_queue
0033c8a8 T wtk_vad2_flush_speech_end
0033c8f4 T wtk_vad2_flush_cache
0033c994 T wtk_vad2_feed_min_speech
0033ca54 T wtk_vad2_feed_speech_end
0033cb30 T wtk_vad2_feed_speech
0033cbc4 T wtk_vad2_feed_sil
0033cc50 T wtk_vad2_feed_frv
0033ccc0 T wtk_vad2_reset
0033cd08 T wtk_vad2_start
0033cd48 T wtk_vad2_restart
0033cdd4 T wtk_vad2_delete
0033ce00 T wtk_vad2_new
0033ce9c T wtk_dnnvad_raise_frv
0033cee8 T wtk_dnnvad_flush_frv
0033d028 T wtk_dnnvad_feed_end
0033d094 T wtk_dnnvad_feed_frv
0033d108 T wtk_dnnvad_feed_parm_frv
0033d14c T wtk_dnnvad_feed
0033d17c T wtk_dnnvad_reset
0033d1bc T wtk_dnnvad_delete
0033d1fc T wtk_dnnvad_new
0033d288 T wtk_wakeup_dnn_wordlist_reset
0033d36c T wtk_wakeup_dnn_wordlist_alloc
0033d804 T wtk_wakeup_dnn_wordlist_clean
0033d9b8 t wtk_dict_find_item
0033da3c T wtk_wakeup_dnn_wordlist_new
0033e2ec T wtk_robin_reset
0033e310 T wtk_robin_delete
0033e330 T wtk_robin_push
0033e384 T wtk_robin_pop
0033e3d4 T wtk_robin_new
0033e424 T wtk_short_vector_new
0033e470 t aisp_rader
0033e4b8 T wtk_fb_fftr32
0033eb60 T wtk_fxlog
0033eca4 T wtk_math_do_diff
0033ed74 T wtk_short_vector_buffer_delete
0033ed94 T wtk_short_vector_buffer_reset
0033edd0 T wtk_short_vector_buffer_push
0033ee34 T wtk_short_vector_buffer_push_c
0033ef40 T wtk_short_vector_buffer_skip
0033efc8 T wtk_short_vector_buffer_peek
0033f074 T wtk_short_vector_buffer_new
0033f0d8 T wtk_parmkind_from_string
0033f370 T wtk_dnn_flush_robin_all
0033f3cc T wtk_dnn_raise_frv
0033f3f8 T wtk_dnn_flush_robin
0033f448 T wtk_dnn_flush_feature
0033f648 T wtk_dnn_feed
0033f6ac T wtk_dnn_reset
0033f760 T wtk_dnn_delete
0033f7bc T wtk_dnn_new
0033f8e4 T wtk_dnn_cfg_update2
0033f9ac T wtk_dnn_cfg_init
0033fa3c T wtk_sigp_clean
0033fa5c T wtk_sigp_procss
0033ffc0 T wtk_parm_init_fbankinfo
00340054 T wtk_sigp_init
003400c4 T wtk_dnnvad_post_flush_feature_robin
00340138 T wtk_dnnvad_flush_end
003401a4 T wtk_dnnvad_post_feed
003402f4 T wtk_dnnvad_post_reset
00340338 T wtk_dnnvad_post_delete
00340378 T wtk_dnnvad_post_new
003403ec T wtk_cblas_feature_to_matirx
00340510 T wtk_cblas_flush_layer_robin
00340544 T wtk_cblas_process_matrix
0034056c T wtk_cblas_process_layer
00340650 T wtk_cblas_reset
00340684 T wtk_cblas_delete
003406d4 T wtk_cblas_new
003407e0 T wtk_cblas_cfg_out_cols
00340814 T wtk_cblas_cfg_in_cols
00340848 T wtk_cblas_cfg_load_trans
003408c0 T wtk_cblas_cfg_load_net
00340a34 T wtk_cblas_cfg_update
00340aac T wtk_cblas_cfg_init
00340b04 T wtk_cblas_matrix_delete
00340b20 T wtk_cblas_matrix_i8_delete
00340b3c T wtk_cblas_matrix_i32_delete
00340b58 T wtk_cblas_matrix_new
00340ba4 T wtk_cblas_vector_i32_new
00340bec T wtk_cblas_vector_new
00340c34 T wtk_cblas_matrix_i32_new
00340ca0 T wtk_cblas_matrix_i8_new
00340d18 T _exp_i_q24
003413a4 T cblas_q24_to_q6_version2
0034153c T cblas_sigmoid_fix_q24
0034164c T fxexp_q16
00341af4 T cblas_softmax_q16
00341ccc T wtk_cblas_process_dnn_layer_i8
00342180 T wtk_cblas_raise_dnn_fixed
003422e4 T cblas_floatto8bit
00342604 T wtk_cblas_process_matrix_i8
00342788 T wtk_cblas_trans_new
003427bc T wtk_cblas_layer_new
003427f0 T NvtIPC_GetNonCacheAddr
00342808 T NvtIPC_GetPhyAddr
00342820 T NvtIPC_GetCacheAddr
00342874 T NvtIPC_FlushCache
003428c4 T NvtIPC_DumpDebugInfo
003428e0 T NvtIPC_MsgRcv
003429b0 T NvtIPC_MsgSnd
00342eb8 T NvtIPC_MsgPost
00342f1c T NvtIPC_MsgRel
00342f38 T NvtIPC_MsgGet
00342f54 T NvtIPC_Ftok
00342f90 T NvtIpc_GetShmCtrl
00342f9c t xNvtIpc_SetCore1Error
00342fc0 t xNvtIpc_SetCore3Error
00342fe4 T NvtIPC_ShmFlush
00343000 T NvtIPC_ShmGet
00343140 t NvtIpc_SysCmd_TimerCb
00343194 T NvtIpc_WaitSysCmdAck
00343324 T NvtIPC_CalBuffSize
00343340 T NvtIPC_Open
0034366c t NvtIpc_SemTsk
00343810 t NvtIpc_ErrTsk
00343968 t NvtIpc_SysCmdTsk
00343cd4 t xNvtIpc_CoreHandleFunc
00343d98 t xNvtIpc_Core3Handler
00343dc8 t xNvtIpc_Core1Handler
00343df8 t T.58
00343ec4 t T.59
00343f20 t NvtIpc_SysTsk
003441e4 T NvtIpcMsgQue_CalBuffSize
003441ec T NvtIpcMsgQue_GetSysCmdBuf
003441fc T NvtIpcMsgQue_DumpDebugInfo
0034440c T NvtIpcMsgQue_GetQuebyID
0034449c T NvtIpcMsgQue_GetIDbyKey
00344530 T NvtIpcMsgQue_DeQueue
00344654 T NvtIpcMsgQue_EnQueue
00344708 T NvtIpcMsgQue_Rel
00344834 T NvtIpcMsgQue_Get
00344a78 T NvtIpcMsgQue_UnlockSndMsgBuf
00344aa4 T NvtIpcMsgQue_UnlockSysCmd
00344ac8 T NvtIpcMsgQue_LockSndMsgBuf
00344b3c T NvtIpcMsgQue_LockSysCmd
00344b60 T NvtIpcMsgQue_Ftok
00344c30 T NvtIpcMsgQue_Init
00344d40 T NvtStreamSender_ReleaseAStrm
00344d94 T NvtStreamSender_ReleaseVStrm
00344de4 T NvtStreamSender_GetAudioInfo
00344ed8 T NvtStreamSender_GetnLockAStrm
00345074 T NvtStreamSender_GetnLockVStrm
0034521c T NvtStreamSender_GetVideoInfo
00345378 T NvtStreamSender_Close
003453b8 T NvtStreamSender_Open
003453f4 T ssender_fakeio_close
00345468 t nvt_stream_ioctl_getlockitem
00345880 T ssender_fakeio_ioctl
00345fe8 T ssender_fakeio_open
003460a4 T ssender_fakeio_module_init
00346130 T strmsnd_buf_reg_hdl
00346180 T strmsnd_buf_unreg_hdl
003461b4 T strmsnd_buf_vinfo_ready
00346218 T strmsnd_buf_ainfo_ready
00346274 T strmsnd_buf_get_ainfo
003462cc T strmsnd_buf_get_vinfo
00346324 T strmsnd_buf_get_max_sn
0034638c T strmsnd_buf_get_item
0034643c T strmsnd_buf_get_idx
00346488 t strmsnd_buf_clear_ack
003466d0 T strmsnd_buf_chk_release
00346b28 T strmsnd_buf_item_ready
00346cec T strmsnd_buf_lock
00346d20 T strmsnd_buf_unlock
00346d54 T strmsnd_bufloc_set_ainfo
00346e5c T strmsnd_bufloc_set_vinfo
00346f5c T strmsnd_bufloc_add_data
003471b8 T strmsnd_bufloc_config
0034736c T strmsnd_bufloc_rel_ack
00347508 T strmsnd_buf_wait_ainfo_ready
00347860 T strmsnd_buf_wait_vinfo_ready
00347bd0 T strmsnd_buf_wait_item_ready
00347ee8 T strmsnd_buf_init
00347ff8 T strmsnd_ipc_is_auto_rel
00348004 T nvt_stream_ipc_GetParam
00348054 T nvt_stream_ipc_get_shm_data
003480d0 T nvt_stream_ipc_WaitCmd
00348164 T nvt_stream_ipc_SendCmd
003481ec T nvt_stream_ipc_Init
00348360 t nvt_stream_snd_ipc_thread
003485d4 T ssender_wqhead_init
0034863c T Nvtver_DumpVerInfo
003489b4 T ver_main
003489d4 t comp
003489f4 T ethsocket_udp_install
00348adc T ethsocket_udp_sendto
00348cf8 T ethsocket_udp_open
00348d98 t ethsocket_udp_server
00349354 T uart_main
003494a4 T runmain_as_pthread
0034950c W nvt_hal_plf_serial_getc
00349530 W nvt_hal_plf_serial_putc
00349668 t ThreadProc
00349874 t nvtimeth_int_vector
00349880 t nvtimeth_isr
003498a0 T nvtimeth_register_link_cb
003498e4 t nvtimeth_close
00349930 t nvtimeth_stop
00349974 t nvtimeth_recv
00349a00 t nvtimeth_send
00349b38 t nvtimeth_can_send
00349bb0 t nvtimeth_control
00349c74 t nvtimeth_init
00349f0c t nvtimeth_phy_thread
0034a0f0 t T.58
0034a1f8 t T.59
0034a2e0 t nvtimeth_start
0034a724 t nvtimeth_deliver
0034aae0 t nvtimeth_poll
0034ab18 t T.15
0034ab80 T nvtimeth_mdio_get
0034ac2c T nvtimeth_mdio_read_id
0034acb0 T platform_prepareClk
0034acb8 T platform_enableClk
0034ad0c T platform_checkSetting
0034ad4c T eqos_set_mac_addr
0034adac T eqos_mac_init
0034af84 T eqos_disable_mmc_tx_interrupt
0034afa4 T eqos_disable_mmc_rx_interrupt
0034afc4 T eqos_disable_mmc_ipc_rx_interrupt
0034afe4 T eqos_clear_interrupt
0034b000 T eqos_dma_interrupt_enable
0034b034 T eqos_dma_interrupt_disable
0034b048 T eqos_enable_dma_rx
0034b068 T eqos_enable_dma_tx
0034b088 T eqos_disable_dma_rx
0034b0ac T eqos_disable_dma_tx
0034b0d0 T eqos_tx_desc_init_ring
0034b0f4 T eqos_is_rx_desc_valid
0034b10c T eqos_is_rx_crc
0034b114 T eqos_get_rx_desc_frame_length
0034b11c T eqos_rx_desc_init_ring
0034b140 T eqos_get_free_tx_desc
0034b150 T eqos_take_desc_ownership_rx
0034b1a4 T eqos_take_desc_ownership_tx
0034b1f8 T eqos_reset
0034b260 T eqos_get_rx_qptr
0034b3e8 T eqos_get_tx_qptr
0034b580 T eqos_set_rx_qptr
0034b674 T eqos_set_tx_qptr
0034b7b0 T cyg_io_init
0034b854 T cyg_io_write
0034b8ac T cyg_io_read
0034b904 T cyg_io_bwrite
0034b95c T cyg_io_bread
0034b9b4 T cyg_io_select
0034b9ec T cyg_io_get_config
0034ba44 T cyg_io_set_config
0034ba9c T cyg_devio_cwrite
0034baa4 T cyg_devio_cread
0034baac T cyg_devio_bwrite
0034bab4 T cyg_devio_bread
0034babc T cyg_io_lookup
0034bc34 W cyg_start
0034bc5c W cyg_prestart
0034bc64 W cyg_package_start
0034bc6c t _ZL4_cvtyPclS_
0034bd7c t _ZL6_sputccPPv
0034bdb8 T diag_vdump_buf_with_offset
0034bf8c T diag_dump_buf_with_offset
0034bfc0 T diag_dump_buf
0034bfdc t _GLOBAL__I.10100_diag_write_char
0034bff8 T diag_write_char
0034c048 t _ZL16_diag_write_charcPPv
0034c064 T diag_write_long_num
0034c1c8 T diag_write_num
0034c1fc T diag_write_hex
0034c224 T diag_write_dec
0034c274 T diag_write_string
0034c2b0 t _ZL8_vprintfPFvcPPvES0_PKcS_
0034ca84 T diag_printf
0034cac8 T diag_snprintf
0034cb0c T diag_sprintf
0034cb5c T cyg_assert_msg
0034cd44 T _memset
0034cd44 W memset
0034ce3c T __cxa_pure_virtual
0034ce84 T ker_main
0034d020 T listmaincmd
0034d0b0 T findandruncmd
0034d154 T parsecmd
0034d258 T runmaincmd
0034d330 T cyg_scheduler_read_lock
0034d340 T cyg_thread_self
0034d350 T cyg_thread_get_id
0034d358 T cyg_thread_get_priority
0034d374 T cyg_thread_get_current_priority
0034d37c T cyg_thread_measure_stack_usage
0034d3dc T cyg_thread_add_destructor
0034d42c T cyg_thread_rem_destructor
0034d484 T cyg_thread_enable_timeslice
0034d490 T cyg_clock_to_counter
0034d498 T cyg_clock_get_resolution
0034d4b0 T cyg_real_time_clock
0034d4bc T cyg_current_time
0034d4d8 T cyg_mbox_peek
0034d4e0 t _GLOBAL__I_cyg_scheduler_start
0034d4f0 T cyg_spinlock_destroy
0034d558 T cyg_scheduler_lock
0034d5d8 T cyg_cond_broadcast
0034d5f4 T cyg_cond_wait
0034d614 T cyg_cond_init
0034d630 T cyg_mutex_unlock
0034d64c T cyg_mutex_trylock
0034d668 T cyg_mutex_lock
0034d684 T cyg_mutex_destroy
0034d6a0 T cyg_mutex_init
0034d6bc T cyg_flag_timed_wait
0034d704 T cyg_flag_wait
0034d744 T cyg_flag_maskbits
0034d760 T cyg_flag_setbits
0034d77c T cyg_flag_destroy
0034d798 T cyg_flag_init
0034d7b4 T cyg_semaphore_post
0034d7d0 T cyg_semaphore_timed_wait
0034d7ec T cyg_semaphore_wait
0034d808 T cyg_semaphore_destroy
0034d824 T cyg_semaphore_init
0034d840 T cyg_mbox_put
0034d85c T cyg_mbox_get
0034d878 T cyg_mbox_create
0034d8ac T cyg_alarm_disable
0034d8c8 T cyg_alarm_enable
0034d8e4 T cyg_alarm_initialize
0034d90c T cyg_alarm_delete
0034d928 T cyg_alarm_create
0034d974 T cyg_interrupt_acknowledge
0034d990 T cyg_interrupt_unmask
0034d9ac T cyg_interrupt_mask
0034d9c8 T cyg_interrupt_enable
0034d9e4 T cyg_interrupt_disable
0034da00 T cyg_interrupt_attach
0034da1c T cyg_interrupt_create
0034da6c T cyg_exception_set_handler
0034dab8 T cyg_thread_free_data_index
0034dad4 T cyg_thread_new_data_index
0034db3c T cyg_thread_get_info
0034dccc T cyg_thread_get_next
0034de44 T cyg_scheduler_unlock
0034deb8 T cyg_thread_delay
0034dee0 T cyg_thread_set_priority
0034defc T cyg_thread_yield
0034df20 T cyg_thread_release
0034df3c T cyg_thread_kill
0034df58 T cyg_thread_resume
0034dfac T cyg_thread_suspend
0034dfc8 T cyg_thread_delete
0034e030 T cyg_thread_exit
0034e04c T cyg_thread_create
0034e0a4 T cyg_spinlock_clear_intsave
0034e118 T cyg_spinlock_clear
0034e184 T cyg_spinlock_spin_intsave
0034e20c T cyg_spinlock_spin
0034e27c T cyg_thread_set_data
0034e348 T cyg_thread_get_data
0034e410 T _ZNK10Cyg_Thread10check_thisE21cyg_assert_class_zeal
0034e4a0 T _Z16idle_thread_mainj
0034e538 T _ZN10Cyg_Thread15free_data_indexEi
0034e578 T _ZN10Cyg_Thread14new_data_indexEv
0034e5ec T _ZN10Cyg_Thread17deliver_exceptionEij
0034e624 T _ZN10Cyg_Thread7suspendEv
0034e6d8 T _ZN10Cyg_Thread5sleepEv
0034e7ac T _ZN10Cyg_Thread12force_resumeEv
0034e880 T _ZN10Cyg_Thread6resumeEv
0034e948 T _ZN10Cyg_Thread4wakeEv
0034ea00 T _ZN15Cyg_ThreadTimer5alarmEP9Cyg_Alarmj
0034ea7c T _ZN10Cyg_Thread7releaseEv
0034eac8 T _ZN10Cyg_Thread12set_priorityEi
0034ec58 T _ZN10Cyg_Thread4exitEv
0034ed0c T _ZN10Cyg_Thread5delayEy
0034ede0 T _ZN10Cyg_Thread4killEv
0034eeb0 T _ZN10Cyg_ThreadD1Ev
0034efac T _ZN18Cyg_HardwareThread12thread_entryEP10Cyg_Thread
0034efe8 T _ZN10Cyg_ThreadD2Ev
0034f0e4 t __tcf_0
0034f104 T _ZN10Cyg_ThreadC2EjPFvjEjPcjj
0034f638 T _ZN14Cyg_IdleThreadC1Ev
0034f6cc t _GLOBAL__I.11100__ZN18Cyg_HardwareThread12thread_entryEP10Cyg_Thread
0034f704 T _ZN10Cyg_ThreadC1EjPFvjEjPcjj
0034fc38 T _ZN10Cyg_Thread12reinitializeEv
0034fdc8 T _Z26cyg_null_exception_handlerjij
0034fdd0 t _GLOBAL__I.12000__Z26cyg_null_exception_handlerjij
0034fdec T cyg_hal_deliver_exception
0034fe18 T _ZN21Cyg_Exception_Control17deliver_exceptionEij
0034fef8 T _ZN21Cyg_Exception_Control18register_exceptionEiPFvjijEjPS1_Pj
0034ffc8 T _ZN13Cyg_InterruptC1EjijPFjjjEPFvjjjE
0034fff4 t _GLOBAL__I.12000__ZN13Cyg_Interrupt15disable_counterE
0035002c W _ZN12Cyg_SpinLockD1Ev
00350094 T _ZN13Cyg_Interrupt6detachEv
0035014c T _ZN13Cyg_InterruptD1Ev
00350168 T _ZN13Cyg_Interrupt8post_dsrEv
003501b4 T _ZN13Cyg_Interrupt23call_pending_DSRs_innerEv
00350270 T cyg_interrupt_call_pending_DSRs
0035028c T _ZN13Cyg_Interrupt21acknowledge_interruptEj
003502fc T _ZN13Cyg_Interrupt16unmask_interruptEj
00350384 T _ZN13Cyg_Interrupt14mask_interruptEj
0035040c T _ZN13Cyg_Interrupt6attachEv
00350528 T interrupt_end
0035055c T _ZN13Cyg_Interrupt17call_pending_DSRsEv
003505d4 T _ZN13Cyg_Interrupt18disable_interruptsEv
00350694 T _ZN13Cyg_Interrupt17enable_interruptsEv
00350780 T _ZN28Cyg_Scheduler_ImplementationC2Ev
003507cc T _ZN28Cyg_Scheduler_Implementation19set_need_rescheduleEP10Cyg_Thread
00350814 T _ZN28Cyg_Scheduler_Implementation15register_threadEP10Cyg_Thread
0035081c T _ZN28Cyg_Scheduler_Implementation17deregister_threadEP10Cyg_Thread
00350824 T _ZN30Cyg_SchedThread_ImplementationC2Ej
00350838 T _ZN30Cyg_ThreadQueue_Implementation7enqueueEP10Cyg_Thread
003509b0 T _ZN30Cyg_ThreadQueue_Implementation7dequeueEv
00350a00 T _ZN30Cyg_ThreadQueue_Implementation6removeEP10Cyg_Thread
00350a60 T _ZN28Cyg_Scheduler_Implementation10rem_threadEP10Cyg_Thread
00350c38 T _ZN28Cyg_Scheduler_Implementation10add_threadEP10Cyg_Thread
00350f28 T _ZN28Cyg_Scheduler_Implementation13timeslice_cpuEv
003510e0 T _ZN28Cyg_Scheduler_Implementation9timesliceEv
00351110 T _ZN30Cyg_SchedThread_Implementation5yieldEv
0035127c T _ZN28Cyg_Scheduler_Implementation15set_idle_threadEP10Cyg_Threadj
003512b0 T _ZN16Cyg_Priority_Map11get_map_lsbEv
003512cc T _ZN28Cyg_Scheduler_Implementation8scheduleEv
00351470 T _ZN15Cyg_SchedThread11asr_defaultEj
00351478 W _ZN13Cyg_SchedulerD1Ev
003514dc t _GLOBAL__I.11000_cyg_scheduler_sched_lock
0035151c T _ZN15Cyg_SchedThread24clear_inherited_priorityEv
003515cc T _ZN15Cyg_SchedThread22clear_priority_ceilingEv
0035163c T _ZN15Cyg_SchedThread19disinherit_priorityEv
003516ac T _ZN15Cyg_SchedThread22set_inherited_priorityEiP10Cyg_Thread
0035175c T _ZN15Cyg_SchedThread20set_priority_ceilingEi
003517cc T _ZN15Cyg_SchedThread16inherit_priorityEP10Cyg_Thread
0035187c T _ZN15Cyg_SchedThread24relay_inherited_priorityEP10Cyg_ThreadP15Cyg_ThreadQueue
003518a4 T _ZN15Cyg_SchedThread14relay_priorityEP10Cyg_ThreadP15Cyg_ThreadQueue
003518c0 T _ZN15Cyg_SchedThreadC2EP10Cyg_Threadj
003518fc T _ZNK13Cyg_Scheduler10check_thisE21cyg_assert_class_zeal
00351968 T _ZN13Cyg_Scheduler9start_cpuEv
003519f0 T _ZN13Cyg_Scheduler5startEv
00351a00 T _ZN13Cyg_Scheduler12unlock_innerEj
003520b0 T _ZN13Cyg_Scheduler6unlockEv
00352150 T _ZN15Cyg_SchedThread7set_asrEPFvjEjPS1_Pj
003521ac T _ZN13Cyg_Scheduler12thread_entryEP10Cyg_Thread
00352208 T _ZN22Cyg_Counting_SemaphoreC1Ei
00352214 T _ZN22Cyg_Counting_Semaphore4postEv
00352270 T _ZN22Cyg_Counting_Semaphore4waitEv
003523ac T _ZN22Cyg_Counting_Semaphore4waitEy
0035255c T _ZN22Cyg_Counting_SemaphoreD1Ev
00352610 T _ZN8Cyg_FlagC1Ej
0035261c T _ZN8Cyg_Flag4pollEjh
00352778 T _ZN8Cyg_Flag8maskbitsEj
003527d0 T _ZN8Cyg_Flag4waitEjh
00352a48 T _ZN8Cyg_Flag4waitEjhy
00352cec T _ZN8Cyg_Flag7setbitsEj
00352f0c T _ZN8Cyg_FlagD1Ev
00352fd4 T _ZN8Cyg_MboxC1Ev
00352fe8 W _ZNK10Cyg_Mboxt2IPvLi256EE10check_thisE21cyg_assert_class_zeal
00353068 T _ZN8Cyg_Mbox3getEv
00353424 T _ZN8Cyg_Mbox3putEPv
003537c4 T _ZN9Cyg_MutexC1Ev
003537dc T _ZN9Cyg_MutexC1ENS_11cyg_protcolE
003537f4 T _ZNK9Cyg_Mutex10check_thisE21cyg_assert_class_zeal
0035385c T _ZN22Cyg_Condition_VariableC1Ev
00353868 T _ZNK22Cyg_Condition_Variable10check_thisE21cyg_assert_class_zeal
003538d8 T _ZN22Cyg_Condition_VariableD1Ev
0035398c T _ZN22Cyg_Condition_VariableC1ER9Cyg_Mutex
00353a08 T _ZN9Cyg_MutexD1Ev
00353af8 T _ZN9Cyg_Mutex11set_ceilingEi
00353b24 T _ZN22Cyg_Condition_Variable9broadcastEv
00353c80 T _ZN9Cyg_Mutex6unlockEv
00353edc T _ZN9Cyg_Mutex7trylockEv
0035400c T _ZN9Cyg_Mutex4lockEv
00354320 T _ZN22Cyg_Condition_Variable10wait_innerEP9Cyg_Mutexy
0035465c T _ZN22Cyg_Condition_Variable10wait_innerEP9Cyg_Mutex
0035497c T _ZN35Cyg_Mempool_dlmalloc_ImplementationC1EPhij
00354a10 T _ZN35Cyg_Mempool_dlmalloc_Implementation14do_check_chunkEPNS_12malloc_chunkE
00354b1c T _ZN35Cyg_Mempool_dlmalloc_Implementation19do_check_free_chunkEPNS_12malloc_chunkE
00354dc4 T _ZN35Cyg_Mempool_dlmalloc_Implementation20do_check_inuse_chunkEPNS_12malloc_chunkE
00354f84 T _ZN35Cyg_Mempool_dlmalloc_Implementation4freeEPhi
00355290 T _ZN35Cyg_Mempool_dlmalloc_Implementation10get_statusEtR18Cyg_Mempool_Status
00355518 T _ZN35Cyg_Mempool_dlmalloc_Implementation23do_check_malloced_chunkEPNS_12malloc_chunkEm
003556d0 T _ZN35Cyg_Mempool_dlmalloc_Implementation9try_allocEi
00355c94 T _ZN35Cyg_Mempool_dlmalloc_Implementation12resize_allocEPhiPi
00356160 t _GLOBAL__I.47000_cygmem_pool_heap1
003561c0 W _ZN20Cyg_Mempool_dlmallocD1Ev
00356288 T abort
003562d8 T exit
003562fc W _ZN15Cyg_StdioStream9unlock_meEv
0035637c T cyg_libc_stdio_flush_all_but
003565f8 T fflush
00356724 T snprintf
0035674c T sprintf
00356788 T vsscanf_s
00357340 T sscanf_s
0035736c T sscanf
00357398 t _GLOBAL__I.52002_cyg_libc_stdio_stderr
0035741c W _ZN15Cyg_StdioStreamD1Ev
00357580 t _GLOBAL__I.52000__ZN20Cyg_libc_stdio_files5filesE
003575c0 T perror
00357648 T puts
00357680 T Cyg_libc_stdio_find_filename
003576dc t _GLOBAL__I.52001_cyg_libc_stdio_stdout
00357764 W _ZN21Cyg_StdioStreamBuffer17set_bytes_writtenEj
003577f4 W _ZN21Cyg_StdioStreamBuffer14set_bytes_readEj
003578bc T _ZN15Cyg_StdioStream10initializeEiNS_8OpenModeEiiijPh
00357a8c T _ZN15Cyg_StdioStreamC1EiNS_8OpenModeEiiijPh
00357b38 T _ZN15Cyg_StdioStream21flush_output_unlockedEv
00357c9c T _ZN15Cyg_StdioStreamC1ENS_8OpenModeEjPh
00357db8 T _ZN15Cyg_StdioStream18refill_read_bufferEv
0035800c T _ZN15Cyg_StdioStream9read_byteEPh
00358224 T _ZN15Cyg_StdioStream9peek_byteEPh
003583dc T _ZN15Cyg_StdioStream5writeEPKhjPj
0035880c T _ZN21Cyg_StdioStreamBuffer10set_bufferEjPh
003588cc T vsnprintf
00358970 T vsscanf
003589fc W _ZN15Cyg_StdioStream9set_errorEi
00358b4c W _ZN15Cyg_StdioStream23bytes_available_to_readEv
00358c08 W _ZN15Cyg_StdioStream12set_positionEji
00358f1c T vfscanf
0035a65c T fprintf
0035a698 T fputc
0035a698 W putc
0035a794 T putchar
0035a7b8 T fputs
0035a828 T fwrite
0035a8c8 T printf
0035a910 t _ZL5rounddPiPcS0_cS0_
0035aad8 T vfnprintf
0035c854 T qsort
0035d1b0 T strtol
0035d3dc T strtoul
0035d5fc T strtod
0035da98 T strtoll
0035ddfc T strtoull
0035e118 T __memchr
0035e118 W memchr
0035e238 T __memcmp
0035e238 W memcmp
0035e378 T __memmove
0035e378 W memmove
0035e3e4 T __strcat
0035e3e4 W strcat
0035e498 T __strchr
0035e498 W strchr
0035e5d0 T __strcmp
0035e5d0 W strcmp
0035e6ac T __strcpy
0035e6ac W strcpy
0035e74c T __strlen
0035e74c W strlen
0035e7ec T __strncat
0035e7ec W strncat
0035e8c0 T __strncmp
0035e8c0 W strncmp
0035ea5c T __strncpy
0035ea5c W strncpy
0035eb20 T __strrchr
0035eb20 W strrchr
0035eb58 T __strstr
0035eb58 W strstr
0035ebd4 T __strtok_r
0035ebd4 W strtok_r
0035ec74 t _GLOBAL__I.52000___strtok
0035ecb4 T __strtok
0035ecb4 W strtok
0035ee28 T __strcasecmp
0035ee28 W strcasecmp
0035eeb0 T __strncasecmp
0035eeb0 W strncasecmp
0035ef6c T __rindex
0035ef6c W rindex
0035ef88 T __index
0035ef88 W index
0035efa4 T __bcopy
0035efa4 W bcopy
0035efc8 T __strdup
0035efc8 W strdup
0035f018 T clock
0035f024 T strftime
0035f348 t _ZL9do_formathjPcPK2tm
0035fbc4 T time
0035fbfc T cyg_libc_time_itoa
0035fd74 T cyg_libc_time_normalize_structtm
00360254 T modf
00360390 T log
00360514 T pow
00360b58 T __strerror
00360b58 W strerror
00360b80 T cyg_error_get_errno_p
00360c00 T cyg_hal_invoke_constructors
00360c54 T hal_idle_thread_action
00360c60 T __cxa_atexit
00360c68 T hal_default_isr
00360ca4 T cyg_hal_exception_handler
00360ccc T hal_thread_switch_context
00360d58 T hal_thread_load_context
00360e3c T hal_setjmp
00360e78 T hal_longjmp
00360eb4 T hal_disable_interrupts
00360ec8 t hal_disable_interrupts_end
00360ec8 T hal_enable_interrupts
00360ed8 t hal_enable_interrupts_end
00360ed8 T hal_restore_interrupts
00360ef0 t hal_restore_interrupts_end
00360ef0 T hal_variant_init
00360ef8 T hal_init_icache
00360f78 T hal_init_dcache
00360fe8 T hal_c_cache_init
003610ac T hal_dcache_flush
003610ec T hal_dcache_invalidate
0036112c T hal_dcache_store
00361174 T memcpy
00361268 t unaligned_wordcpy
0036129c t aligned
00361348 t aligned_wordcpy
00361370 t smallcpy
0036138c t leave
00361394 T hal_diag_read_char
003613c0 T hal_diag_write_char
00361434 T hal_diag_init
00361450 T hal_plf_interrupt_mask
00361498 T hal_plf_interrupt_unmask
003614dc T hal_plf_interrupt_set_level
003614e4 T hal_plf_interrupt_acknowledge
003614ec T hal_plf_clock_initialize
00361508 T hal_plf_clock_read
00361514 T hal_plf_clock_reset
00361554 T hal_plf_delay_us
003615f0 T hal_platform_init
00361664 T cyg_hal_plf_comms_init
00361680 T cyg_hal_plf_serial_getc
003616f4 T cyg_hal_plf_serial_putc
00361778 t _ZL15init_convertorsv
00361888 T pthread_cond_wait
003618e4 T pthread_cond_broadcast
00361918 T pthread_cond_init
0036194c T pthread_mutex_unlock
00361980 T pthread_mutex_lock
003619d0 T pthread_mutex_init
00361a80 T pthread_cond_timedwait
00361cd4 T getpid
00361cdc T cyg_posix_function_start
00361cf8 T cyg_posix_function_finish
00361d34 t _GLOBAL__I.55000_pthread_mutex
00361d74 T pthread_attr_setstacksize
00361e14 T cyg_posix_pthread_release_thread
00361eac t _ZL12pthread_reapv
00362008 t _ZL9call_mainPv
00362028 T pthread_self_info
003620a8 T pthread_setcancelstate
00362138 T pthread_exit
00362308 t _ZL13pthread_entryj
00362328 t _ZL9posix_asrj
00362370 T pthread_testcancel
003623ac T pthread_create
00362958 T cyg_posix_pthread_start
00362a14 t _GLOBAL__I.55000_cyg_timespec_to_ticks
00362a54 T cyg_posix_timer_asr
00362b00 t _ZL15init_convertersv
00362c64 T cyg_posix_clock_start
00362c80 T cyg_ticks_to_timespec
00362e00 T clock_gettime
00362e54 T gettimeofday
00362eb0 T cyg_timespec_to_ticks
00363140 T nanosleep
003632dc T usleep
00363320 T sleep
00363350 T cyg_timeval_to_ticks
00363394 T cyg_posix_signal_start
003633fc t _GLOBAL__I.55000_signal_mutex
003634c4 T sigismember
00363510 T sigaddset
00363568 t _ZL14sigalrm_actionP9Cyg_Alarmj
003635c0 T cyg_posix_sigpending
00363600 T cyg_pthread_sigmask_set
00363650 T cyg_posix_thread_sigdestroy
0036366c T cyg_posix_thread_siginit
003636a8 T cyg_deliver_signals
00363a10 T cyg_posix_deliver_signals
00363a80 T sigaction
00363bfc T signal
00363c3c T cyg_sigqueue
00363e3c T cyg_posix_signal_asr
00363e8c T kill
00363f10 T raise
00363f30 T cyg_pthread_exception_init
00363f38 T cyg_pthread_exception_destroy
00363f40 T cyg_posix_exception_start
00363f88 t _ZL27cyg_posix_exception_handlerjij
00364034 T cyg_fd_init
0036407c T cyg_file_unlock
003640f8 T cyg_file_lock
00364170 t _ZL13fp_ucount_decP12CYG_FILE_TAG
003641e8 T cyg_fp_free
0036422c T cyg_fp_get
003642b8 T cyg_fd_free
0036435c T cyg_fd_assign
003643e8 T cyg_fd_alloc
003644a8 T cyg_file_free
003644e8 T cyg_file_alloc
0036458c T getcwd
003646d0 T cyg_fs_get_attrib
00364824 T cyg_fs_set_attrib
0036497c T stat
00364ab8 T chdir
00364e70 T rename
00365000 T rmdir
00365134 T mkdir
00365268 T unlink
0036539c T open
003655cc T fstat
00365698 T ioctl
00365774 T lseek
00365870 T fsync
00365948 t _ZL10readwriteviPK13CYG_IOVEC_TAGii
00365b18 T write
00365b44 T read
00365b70 T fcntl
00365ca0 T close
00365d44 T closedir
00365d74 T readdir_r
00365e14 T readdir
00365e84 T opendir
0036605c T cyg_selinit
00366068 T cyg_selrecord
0036607c t _GLOBAL__I.50000_select
003660f0 T cyg_selwakeup
00366148 t _ZL11cyg_pselectiP6fd_setS0_S0_P7timevalPKj
00366654 T select
00366678 t _GLOBAL__I.50000_cyg_nstab_init
003666b0 t __tcf_0
003666d0 t _ZL13cyg_sock_lockP4file
0036673c t _ZL15cyg_sock_unlockP4file
003667a8 T setsockopt
003668bc T sendto
003669f8 T send
00366a18 T recvfrom
00366b68 T recv
00366b88 T listen
00366c74 T getsockopt
00366d88 T getsockname
00366e88 T getpeername
00366f88 T connect
00367084 T bind
003671dc T accept
003673a0 T socket
003675b4 T cyg_cpuload_get
00367634 T cyg_cpuload_start
00367664 T eth_drv_run_deliveries
003676ec t eth_drv_send
00367900 t eth_drv_tx_done
00367960 t eth_drv_tx_done_ext
003679e4 t eth_drv_start
00367a8c T eth_drv_tickle_devices
00367af8 t eth_drv_recv
00368094 t eth_drv_recv_ext
003683b4 t eth_drv_init
003684f0 t eth_drv_ioctl
003689e4 T eth_drv_dsr
00368a80 T inet_aton
00368d08 T inet_addr
00368d38 T inet_ntoa_r
00368d88 T inet_ntoa
00368da8 T gethostname
00368e08 T dhcp_set_hostname
00368ee8 T dhcp_cli_get_server_ip
00368f38 T dhcp_dmp_fix_ip_pair
003690e4 T dhcp_set_fix_ip_pair
00369234 T build_bootp_record
0036942c T init_loopback_interface
00369844 T init_all_network_interfaces_statically
00369bb4 T getprotobynumber
00369c18 T getprotobyname
00369c9c T gai_strerror
00369cc4 T getnameinfo
00369ee8 T freeaddrinfo
00369f68 T alloc_addrinfo
0036a060 T getaddrinfo
0036a5bc T freeifaddrs
0036a5d8 T getifaddrs
0036abe0 T if_indextoname
0036acb0 T if_nametoindex
0036ad98 T tftpd_stop
0036ae4c T tftpd_start
0036aee8 t tftpd_send_error
0036aff4 t tftpd_server
0036be3c T cyg_mtocl
0036be50 T cyg_tvtohz
0036bf20 T bcmp
0036bf50 t cyg_ktime_func
0036c004 t cyg_net_init_devs
0036c0c8 T cyg_getmicrouptime
0036c12c T cyg_getmicrotime
0036c190 T cyg_microtime
0036c1f4 t _mask
0036c330 T show_network_tables
0036c650 t _dumpentry
0036c948 T cyg_centisecond_delta
0036ca00 T cyg_net_init
0036cd00 t cyg_netint
0036cda8 T cyg_centiseconds
0036ce90 T cyg_ticks
0036ceac T cyg_register_netisr
0036cf68 T cyg_panic
0036cfbc T cyg_ovbcopy
0036cfe0 T cyg_copyin
0036d008 T cyg_copyout
0036d030 T cyg_arc4random
0036d08c T get_random_bytes
0036d0d0 T read_random_unlimited
0036d0f0 T cyg_kmem_print_stats
0036d234 T zfreei
0036d2b4 T zalloci
0036d34c T zinit
0036d49c T cyg_net_cluster_alloc
0036d518 T cyg_net_mbuf_alloc
0036d61c T cyg_net_free
0036d644 T cyg_net_malloc
0036d724 T cyg_splx
0036d848 T cyg_tsleep
0036db78 T cyg_splclock
0036dcfc T cyg_wakeup
0036dd74 T cyg_tsleep_init
0036ddd8 T cyg_splimp
0036df5c T cyg_splinternal
0036e0e0 T cyg_splsoftnet
0036e264 T cyg_splnet
0036e3e8 T cyg_callout_active
0036e3f4 T cyg_callout_deactivate
0036e408 T cyg_callout_pending
0036e414 T cyg_callout_stop
0036e4b0 T cyg_callout_reset
0036e84c T cyg_callout_init
0036e868 T cyg_timeout
0036e944 T cyg_alarm_timeout_init
0036e9f4 t alarm_thread
0036ecd4 t do_alarm
0036ecf8 T ecos_synch_eth_drv_dsr
0036ed1c T cyg_do_net_init
0036ed24 t _GLOBAL__I.52100_cyg_do_net_init
0036ed40 T cyg_if_clone_lookup
0036ee30 t if_slowtimo
0036eec8 t ifinit
0036eee4 T cyg_ifaof_ifpforaddr
0036f0e8 T cyg_ifa_ifwithdstaddr
0036f1bc T cyg_ifa_ifwithaddr
0036f2b0 T cyg_if_delmulti
0036f508 T cyg_if_addmulti
0036f76c T _ioctl_name
0036fdac T cyg_ifunit
0036fee8 T cyg_if_clone_destroy
0036ff74 T cyg_if_route
00370000 T cyg_if_up
00370020 T cyg_if_unroute
003700e0 T cyg_if_down
00370100 T cyg_ifa_ifwithnet
003702e8 T cyg_if_clone_list
003703e0 T cyg_if_clone_create
003704e4 T cyg_ifioctl
00370dc0 t link_rtrequest
00370e88 T _sa
00370f14 T _show_ifp
00370fa8 T cyg_if_attach
00371384 t rt_setmetrics
00371428 t rts_sockaddr
00371478 t rts_shutdown
003714c0 t rts_send
00371530 t rts_peeraddr
00371580 t rts_disconnect
003715c8 t rts_detach
003716c0 t rts_connect
00371718 t rts_bind
00371770 t rts_abort
003717b8 t rts_attach
00371960 t rt_msg2
00371b50 t sysctl_rtsock
00371e80 t sysctl_dumpentry
00371fd0 t route_output
0037287c t rt_msg1
00372abc T cyg_rt_newmaddrmsg
00372ba8 T cyg_rt_newaddrmsg
00372db8 T cyg_rt_ifmsg
00372e98 T cyg_rt_missmsg
00372f4c T cyg_raw_init
00372f58 T cyg_raw_ctlinput
00372f60 t raw_ubind
00372f68 t raw_uconnect
00372f70 t raw_usockaddr
00372fc8 t raw_upeeraddr
00373024 t raw_ushutdown
0037305c t raw_usend
00373138 t raw_udisconnect
00373194 t raw_udetach
003731cc t raw_uattach
00373200 t raw_uabort
00373258 T cyg_raw_input
00373474 t rt_maskedcopy
00373510 T cyg_ifafree
00373574 T cyg_rtfree
003736c8 T cyg_rtalloc1
003738b0 T cyg_ifa_ifwithroute
003739a8 T cyg_rt_setgate
00373c70 T cyg_rtrequest
003741f8 T cyg_rtinit
003744c0 t rt_fixchange
00374614 t rt_fixdelete
00374668 T cyg_rtioctl
003746f0 T cyg_rtalloc_ign
0037479c T cyg_rtalloc
003747b8 T cyg_rtredirect
003749f0 T cyg_route_init
00374a58 t call_route_init
00374a74 T cyg_rn_refines
00374b80 T cyg_rn_match
00374eec t rn_insert
003750dc t rn_walktree_from
00375288 t rn_walktree
00375388 T cyg_rn_inithead
003754f0 T cyg_rn_init
00375654 t rn_new_radix_mask
00375724 T cyg_rn_addmask
00375a60 T cyg_rn_delete
00375f34 T cyg_rn_addroute
003763d4 T cyg_rn_lookup
0037646c T cyg_ether_ioctl
0037655c T cyg_ether_ifattach
00376618 t ether_resolvemulti
0037675c T cyg_ether_demux
003769cc T cyg_ether_input
00376a2c T cyg_ether_output_frame
00376b34 T cyg_ether_output
00376f0c t lortrequest
00376f30 T cyg_loioctl
00376f84 t loopattach
00376ff4 T cyg_if_simloop
00377134 T cyg_looutput
0037746c t packet_init
00377478 t packet_abort
00377480 t packet_disconnect
00377488 t packet_peeraddr
00377490 t packet_control
003774cc T cyg_use_af_packet
003774d4 t packet_bind
003775dc t packet_sockaddr
00377684 t packet_shutdown
003776a4 t packet_send
00377864 t packet_detach
003778f4 t packet_output_hook
00377ad8 t packet_input_hook
00377df8 t packet_attach
00377f14 T cyg_in_localaddr
00377fcc T cyg_in_canforward
00378044 T cyg_in_broadcast
003780fc T cyg_in_delmulti
003781d8 t in_len2mask
00378264 T cyg_in_addmulti
003783d4 T cyg_in_ifscrub
0037843c t in_ifinit
00378844 T cyg_in_control
00379530 T cyg_in_pcblookup_local
00379660 T cyg_in_pcblookup_hash
0037975c T cyg_in_pcbrehash
003797dc t sysctl_net_ipport_check
00379950 T cyg_in_pcbremlists
00379a2c T cyg_in_pcbinshash
00379b90 T cyg_in_rtchange
00379bc8 T cyg_in_losing
00379c80 T cyg_in_pcbpurgeif0
00379d90 T cyg_in_pcbnotifyall
00379e30 T cyg_in_setpeeraddr
00379ee4 T cyg_in_setsockaddr
00379f98 T cyg_in_pcbdetach
0037a0a0 T cyg_in_pcbdisconnect
0037a0e8 T cyg_in_pcbladdr
0037a37c T cyg_in_pcbbind
0037a62c T cyg_in_pcbconnect
0037a744 T cyg_in_pcballoc
0037a824 T cyg_in_ifadown
0037a8a0 t in_clsroute
0037a934 t in_ifadownkill
0037a9cc T cyg_in_rtqdrain
0037aa38 t in_rtqtimo
0037abac T cyg_in_inithead
0037ac1c t in_rtqkill
0037ad64 t in_matroute
0037adb4 t in_addroute
0037afb4 T cyg_encap_init
0037afd0 t T.34
0037b284 T cyg_encap4_input
0037b35c T cyg_iptime
0037b408 t icmp_reflect
0037b86c T cyg_icmp_input
0037c008 T cyg_icmp_error
0037c3dc T cyg_ipflow_fastforward
0037c5fc T cyg_ipflow_create
0037ca1c T cyg_ipflow_slowtimo
0037cbb8 T cyg_ip_rsvp_init
0037cc24 T cyg_ip_rsvp_done
0037cc54 T cyg_ip_savecontrol
0037cdd4 T cyg_ip_stripoptions
0037ce5c T cyg_ip_srcroute
0037cf2c t ip_freef
0037cfa4 T cyg_ip_drain
0037d018 T cyg_ip_slowtimo
0037d164 t ip_rtaddr
0037d218 t ip_forward
0037d6bc T cyg_ip_input
0037ead8 t ipintr
0037eb6c T cyg_ip_init
0037ecec t ip_multicast_if
0037ed9c T cyg_ip_freemoptions
0037ee08 T cyg_ip_optcopy
0037ef14 T cyg_ip_ctloutput
0037fbe8 T cyg_in_delayed_cksum
0037fcbc T cyg_ip_output
00380f18 T cyg__ip_mrouter_set
00380f20 T cyg__ip_mrouter_get
00380f28 T cyg__ip_mrouter_done
00380f30 T cyg__ip_mforward
00380f38 T cyg__mrt_ioctl
00380f40 T cyg__ip_mcast_src
00380f48 T cyg_ip_rsvp_vif_init
00380f50 T cyg_ip_rsvp_vif_done
00380f58 T cyg_ip_rsvp_force_done
00380f60 T cyg_rsvp_input
00380fdc t arprequest
00381274 T cyg_arp_ifinit
0038134c t arp_rtrequest
003816f8 t arplookup
003817e0 T cyg_arpresolve
00381b84 T _show_arp
00381c78 t arpintr
003827c4 t arptimer
003828c8 T show_arp_tables
00382914 t udp_send
00382c54 t udp_disconnect
00382ce0 t udp_detach
00382d3c t udp_connect
00382dd8 t udp_bind
00382e44 t udp_attach
00382ef8 t udp_abort
00382f5c t udp_pcblist
003832a8 T cyg_udp_shutdown
003832e0 T cyg_udp_ctlinput
00383440 T cyg_udp_notify
003834a4 t udp_append
003835f4 T cyg_udp_input
00383d40 T cyg_udp_init
00383dd0 t tcp_xmit_timer
00383ef8 T tcp_pcblist
00383f64 T cyg_tcp_mssopt
00383fa0 T cyg_tcp_mss
00384394 t tcp_reass
00384788 t tcp_dooptions
00384bd4 T cyg_tcp_input
00387444 T cyg_tcp_setpersist
00387520 T cyg_tcp_output
00388738 t tcp_usr_rcvoob
00388824 t tcp_usr_accept
003888b4 t tcp_usr_rcvd
00388920 t tcp_usrclosed
003889f0 t tcp_usr_shutdown
00388a80 t tcp_usr_listen
00388b28 t tcp_usr_bind
00388bd4 t tcp_connect
00388e40 t tcp_usr_send
00389134 t tcp_usr_connect
00389204 t tcp_usr_abort
00389274 t tcp_disconnect
00389340 t tcp_usr_disconnect
003893ac t tcp_usr_detach
00389418 t tcp_usr_attach
0038953c T cyg_tcp_ctloutput
00389770 t sysctl_rexmitmax_rangecheck
003897f8 t sysctl_msec_to_ticks
003898c8 T cyg_tcp_slowtimo
00389900 T cyg_tcp_timer_rexmt
00389bb0 T cyg_tcp_timer_delack
00389c54 T cyg_tcp_timer_persist
00389dd0 T cyg_tcp_timer_keep
00389f74 T cyg_tcp_timer_2msl
0038a04c T cyg_tcp_canceltimers
0038a08c T cyg_tcp_quench
0038a0a8 t tcp_pcblist
0038a430 T cyg_tcp_rtlookup
0038a4a0 T cyg_tcp_gettaocache
0038a4e4 T cyg_tcp_mtudisc
0038a5e4 T cyg_tcp_new_isn
0038a768 T cyg_tcp_ctlinput
0038a998 T cyg_tcp_drain
0038aa38 T cyg_tcp_close
0038acf0 T cyg_tcp_drop
0038adb0 T cyg_tcp_drop_syn_sent
0038adf0 t tcp_notify
0038ae78 T cyg_tcp_newtcpcb
0038afb8 T cyg_tcp_fillheaders
0038b0b8 T cyg_tcp_respond
0038b478 T cyg_tcp_maketemplate
0038b4ec T cyg_tcp_init
0038b658 T cyg_MD5Init
0038b694 T cyg_MD5Transform
0038c23c T cyg_MD5Update
0038c39c T cyg_MD5Pad
0038c468 T cyg_MD5Final
0038c4e8 T cyg_pffindtype
0038c558 T cyg_pffindproto
0038c5f8 T cyg_pfctlinput
0038c690 t domaininit
0038c70c t pfslowtimo
0038c7a4 t pffasttimo
0038c84c T cyg_net_add_domain
0038c998 T cyg_sopoll
0038c9c4 T cyg_sohasoutofband
0038c9e0 T cyg_sooptcopyout
0038ca38 T cyg_sooptcopyin
0038caa8 T cyg_sogetopt
0038cdb8 T cyg_sosetopt
0038d258 T cyg_sorflush
0038d3c0 T cyg_soshutdown
0038d450 T cyg_sodisconnect
0038d504 T cyg_soconnect
0038d5cc T cyg_soaccept
0038d654 T cyg_solisten
0038d700 T cyg_sobind
0038d75c T cyg_soreceive
0038e6e4 T cyg_sosend
0038f018 T cyg_sodealloc
0038f0c4 T cyg_sofree
0038f1a0 T cyg_soabort
0038f1e8 T cyg_soclose
0038f40c T cyg_soalloc
0038f558 T cyg_socreate
0038f6b4 T cyg_soisconnecting
0038f6c8 T cyg_sbreserve
0038f770 T cyg_pru_accept_notsupp
0038f778 T pru_connect_notsupp
0038f780 T cyg_pru_connect2_notsupp
0038f788 T cyg_pru_control_notsupp
0038f790 T cyg_pru_listen_notsupp
0038f798 T cyg_pru_rcvd_notsupp
0038f7a0 T cyg_pru_rcvoob_notsupp
0038f7a8 T cyg_pru_sense_null
0038f7b0 T sotoxsocket
0038f8a4 T cyg_dup_sockaddr
0038f8f0 T cyg_sbcreatecontrol
0038f9a8 T cyg_sbdroprecord
0038fc00 T cyg_sbdrop
003900ac T cyg_sbflush
00390170 T cyg_sbrelease
00390198 T cyg_soreserve
00390270 T cyg_sbcompress
0039059c T cyg_sbappendrecord
00390660 T cyg_sbappend
003906e4 T cyg_sbappendaddr
00390970 T cyg_sowakeup
00390a00 T cyg_socantrcvmore
00390a34 T cyg_socantsendmore
00390a68 T cyg_soisdisconnected
00390adc T cyg_soisdisconnecting
00390b50 T cyg_soisconnected
00390ccc T cyg_sb_lock
00390d5c T cyg_sbwait
00390d90 T cyg_sonewconn3
00390f28 T cyg_sonewconn
00390f44 T cyg_sodropablereq
0039104c T cyg_m_adj
003911a4 t m_reclaim
00391248 T cyg_m_copydata
00391304 T cyg_m_freem
0039152c T cyg_m_free
003916ac T cyg_m_cat
0039179c T cyg_m_clalloc
00391844 T cyg_m_clalloc_wait
003919cc T cyg_m_mballoc
00391a80 t mbinit
00391b2c T cyg_m_retryhdr
00391c5c T cyg_m_retry
00391d6c T cyg_m_mballoc_wait
00392018 T cyg_m_pullup
003922d4 T cyg_m_copym
00392644 T cyg_m_prepend
00392808 T cyg_m_getclr
00392928 T cyg_m_gethdr
00392a44 T cyg_m_get
00392b40 T cyg_m_copyback
00392cfc T cyg_m_aux_find2
00392dc0 T cyg_m_aux_find
00392ddc T cyg_m_aux_add2
00392f48 T cyg_m_aux_add
00392f64 T accept_filt_get
00392fc0 T cyg_hashinit
0039306c T cyg_uiomove
003931e0 t sysctl_sysctl_next_ls
0039339c t sysctl_sysctl_next
00393424 T sysctl_handle_int
003934c0 T sysctl_handle_opaque
00393520 T sysctl_find_oid
003935e0 t sysctl_sysctl_oidfmt
0039368c t name2oid
0039385c t sysctl_sysctl_name2oid
00393978 t sysctl_sysctl_name
00393b90 t sysctl_sysctl_debug_dump_node
00393d60 t sysctl_sysctl_debug
00393d88 T sysctl_register_oid
00393f18 t sysctl_register_all
00393f64 T sysctl
00394294 t sysctl_new_user
0039430c t sysctl_old_user
003943c8 T hstrerror
003943f0 t free_hent
0039446c t alloc_hent
003944fc t valid_hostname
00394604 t build_query
003947b0 T real_name
003948f4 t parse_answer
00394bfc T setdomainname
00394d08 T cyg_dns_res_start
00394e64 T cyg_dns_res_init
00394eb4 t thread_destructor
00394ee8 t free_stored_hent
00394f3c t store_hent
00394f7c t T.129
00395110 t T.128
003954bc t do_lookups
003954f8 T cyg_dns_getaddrinfo
00395770 t do_query
00395828 T gethostbyname
00395a70 T cyg_dns_getnameinfo
00395c4c T _ZN13Cyg_WallClock16get_current_timeEv
00395c94 T _ZN13Cyg_WallClockC1Ev
00395cbc t _GLOBAL__I.14100__ZN13Cyg_WallClock9wallclockE
00395cdc T _ZN13Cyg_WallClock15init_hw_secondsEv
00395cfc T _ZN13Cyg_WallClock14get_hw_secondsEv
00395d84 t _ZL9trim_funcPKc
00395e38 T cyg_check_func_ptr
00395e78 T _Z15write_thread_idv
00395ee8 T _Z10write_lnumj
00395f20 W cyg_assert_fail
00395f9c T mainfunc
003960b0 T _ZN9Cyg_AlarmC2EP11Cyg_CounterPFvPS_jEj
003960e4 T _ZN9Cyg_AlarmC1EP11Cyg_CounterPFvPS_jEj
00396118 T _ZN9Cyg_AlarmC2Ev
00396124 W _ZN17Cyg_RealTimeClockD1Ev
00396198 T _ZN17Cyg_RealTimeClock3isrEjj
003961c8 T _ZN17Cyg_RealTimeClockC1Ev
00396278 t _GLOBAL__I.14000__ZN9Cyg_Clock15real_time_clockE
003962b8 t _ZL19construct_converterPN9Cyg_Clock9converterEyyyy
00397038 T _ZN9Cyg_Clock28get_clock_to_other_converterEyPNS_9converterE
00397080 T _ZN9Cyg_Clock28get_other_to_clock_converterEyPNS_9converterE
003970c8 T _ZN11Cyg_Counter9rem_alarmEP9Cyg_Alarm
0039720c T _ZN9Cyg_Alarm7disableEv
00397250 T _ZN9Cyg_AlarmD1Ev
00397298 T _ZN9Cyg_AlarmD2Ev
003972e0 T _ZN11Cyg_Counter9add_alarmEP9Cyg_Alarm
00397500 T _ZN9Cyg_Alarm6enableEv
003975d0 T _ZN9Cyg_Alarm10initializeEyy
00397654 T _ZN11Cyg_Counter4tickEj
00397814 T _ZN17Cyg_RealTimeClock3dsrEjjj
00397890 T _ZN9Cyg_TimerD1Ev
003978c0 T _ZN9Cyg_TimerC1Ev
003978dc t _GLOBAL__I_cyg_mempool_var_create
003978ec T cyg_mempool_fix_get_info
00397978 T cyg_mempool_fix_try_alloc
00397994 T cyg_mempool_fix_create
003979e0 T cyg_mempool_var_get_info
00397a70 T cyg_mempool_var_free
00397adc T cyg_mempool_var_try_alloc
00397af8 T cyg_mempool_var_alloc
00397b14 T cyg_mempool_var_create
00397b5c T _exit
00397bb8 T cyg_libc_invoke_atexit_handlers
00397c64 T cyg_libc_invoke_main
00397cd0 W main
00397d78 t _GLOBAL__I.52000_cyg_libc_stdio_stdin
00397e00 T ungetc
00397f50 T __getopt
00397f50 W getopt
00398298 T getprogname
00398308 W matherr
00398310 T rint
00398558 T __ieee754_log
00398d40 T __ieee754_pow
00399fc8 T __ieee754_sqrt
0039a2f0 T _inet_port
0039a31c T inet_ntop
0039a3f4 T _inet_ntop
0039a44c T inet_pton
0039a600 T show_bootp
0039a608 T get_bootp_option
0039a824 T init_net
0039acb4 T getservbyport
0039adac T getservbyname
0039ae98 T cyg_raw_detach
0039aeec T cyg_raw_disconnect
0039af1c T cyg_raw_attach
0039afc0 T cyg_igmp_slowtimo
0039b038 t igmp_sendpkt
0039b240 T cyg_igmp_fasttimo
0039b314 T cyg_igmp_leavegroup
0039b388 t find_rti
0039b414 T cyg_igmp_joingroup
0039b508 T cyg_igmp_input
0039b980 T cyg_igmp_init
0039baa0 t rip_shutdown
0039bac0 t rip_detach
0039bb74 t rip_connect
0039bbe4 t rip_bind
0039bc8c t rip_attach
0039bd70 t rip_abort
0039bd9c t rip_disconnect
0039bdd4 t rip_pcblist
0039c120 T cyg_rip_ctlinput
0039c228 T cyg_rip_ctloutput
0039c43c T cyg_rip_output
0039c688 t rip_send
0039c72c T cyg_rip_input
0039ca4c T cyg_rip_init
0039cadc T cyg_in_cksumdata
0039ce78 T cyg_in_addword
0039cea8 T cyg_in_pseudo
0039cf00 T cyg_in_cksum
0039d054 T cyg_in_cksum_skip
0039d1fc T cyg_in_cksum_hdr
0039d26c W _ZN12Cyg_Mempolt2I32Cyg_Mempool_Fixed_ImplementationEC1EPhij
0039d6c4 T _ZN17Cyg_Mempool_FixedC1EPhij
0039d6e0 T _ZN17Cyg_Mempool_Fixed10get_statusEtR18Cyg_Mempool_Status
0039d84c T _ZN17Cyg_Mempool_Fixed9try_allocEv
0039dac8 W _ZN12Cyg_Mempolt2I35Cyg_Mempool_Variable_ImplementationEC1EPhij
0039dd54 T _ZN20Cyg_Mempool_VariableC1EPhii
0039dd70 T _ZN20Cyg_Mempool_Variable10get_statusEtR18Cyg_Mempool_Status
0039df10 W _ZN12Cyg_Mempolt2I35Cyg_Mempool_Variable_ImplementationE4freeEPhi
0039e3fc T _ZN20Cyg_Mempool_Variable4freeEPhi
0039e418 T _ZN20Cyg_Mempool_Variable9try_allocEi
0039e6a0 T _ZN20Cyg_Mempool_Variable5allocEi
0039ea40 T scalbn
0039ec1c T Iperf_Close
0039ec24 T Iperf_GetResult
0039ec50 t free_iperf_section
0039ec8c T Iperf_Open
0039f158 T Iperf_RunClient
0039f174 t iperf_main
0039f368 T GetLastResult
0039f374 T ResetLastResult
0039f384 T iperf_get_test_one_off
0039f38c T iperf_on_test_finish
0039f394 T iperf_recv
0039f4a4 T iperf_setaffinity
0039f4b8 T iperf_clearaffinity
0039f4cc T iperf_set_test_server_hostname
0039f4f8 T iprintf
0039f614 T usage_ecos
0039f63c T iperf_json_finish
0039f728 T iperf_json_start
0039f824 T iperf_set_send_state
0039f89c T iperf_got_sigend
0039f98c T iperf_catch_sigend
0039f9d0 T iperf_init_stream
0039faec T iperf_new_test
0039fb78 T iperf_new_stream
0039fe1c t diskfile_recv
0039fe70 t diskfile_send
0039fed4 T iperf_free_stream
0039ff94 T iperf_check_throttle
003a013c t send_timer_proc
003a0158 T iperf_on_test_start
003a02ec t iperf_print_intermediate
003a1220 T iperf_reporter_callback
003a248c T iperf_init_test
003a2538 T iperf_reset_stats
003a2654 T iperf_free_test
003a2858 t mapped_v4_to_regular_v4
003a28a8 T connect_msg
003a2a30 T iperf_on_new_stream
003a2a4c T add_to_interval_list
003a2b30 T iperf_stats_callback
003a2d7c t JSON_read
003a2e54 t get_results
003a3208 t JSON_write
003a32e8 t send_results
003a371c T iperf_exchange_results
003a379c t check_sender_has_retransmits
003a37f4 T set_protocol
003a3850 T iperf_reset_test
003a3a74 T iperf_defaults
003a3d28 T iperf_set_test_reverse
003a3d58 T iperf_set_test_role
003a3db4 T iperf_exchange_parameters
003a46d0 T iperf_create_send_timers
003a47fc T iperf_send
003a4b7c T iperf_parse_arguments
003a53e8 T iperf_on_connect
003a5aa4 T warning
003a5ad0 T usage_long
003a5b10 T iperf_strerror
003a639c T iperf_errexit
003a6464 T iperf_err
003a6518 t test_timer_proc
003a6528 t client_stats_timer_proc
003a655c t client_reporter_timer_proc
003a6590 t sigend_handler
003a65a8 T iperf_client_end
003a661c T iperf_connect
003a672c t client_omit_timer_proc
003a67dc T iperf_create_streams
003a6884 T iperf_handle_message_client
003a6e60 T iperf_run_client
003a74fc t server_stats_timer_proc
003a7530 t server_reporter_timer_proc
003a7564 t server_omit_timer_proc
003a7614 t cleanup_server
003a76d8 t sigend_handler
003a76f0 T iperf_handle_message_server
003a7a0c T iperf_accept
003a7b94 T iperf_server_listen
003a7d2c T iperf_run_server
003a86ac T iperf_tcp_connect
003a8ac8 T iperf_tcp_listen
003a8efc T iperf_tcp_recv
003a8f84 T iperf_tcp_accept
003a90a0 T iperf_tcp_send
003a9154 T iperf_udp_init
003a915c T iperf_udp_connect
003a92c0 T iperf_udp_listen
003a9304 T iperf_udp_accept
003a94b0 T iperf_udp_send
003a9610 T iperf_udp_recv
003a9898 T timeval_equals
003a98c0 T timeval_diff
003a99dc T cpu_util
003a9a04 T iperf_json_printf
003a9bdc T is_closed
003a9c74 T make_cookie
003a9d90 T has_sendfile
003a9d98 T getsockdomain
003a9dd4 T Nsendfile
003a9e08 T setnonblocking
003a9ee0 T Nwrite
003a9fd8 T Nread
003aa0a4 T netannounce
003aa284 T netdial
003aa460 T has_tcpinfo
003aa468 T has_tcpinfo_retransmits
003aa470 T save_tcpinfo
003aa478 T get_total_retransmits
003aa480 T get_snd_cwnd
003aa488 t list_add
003aa57c t add_usecs
003aa63c T tmr_cancel
003aa680 T tmr_cleanup
003aa6c4 T tmr_destroy
003aa740 t getnow
003aa780 T tmr_reset
003aa810 T tmr_run
003aa964 T tmr_timeout
003aaa50 T tmr_create
003aab2c T unit_snprintf
003aae38 T unit_atoi
003aaf6c T unit_atof_rate
003ab08c T unit_atof
003ab1ac t cJSON_strcasecmp
003ab25c T cJSON_Delete
003ab310 T cJSON_GetArraySize
003ab33c T cJSON_GetArrayItem
003ab364 T cJSON_GetObjectItem
003ab3bc T cJSON_AddItemToArray
003ab3f0 T cJSON_DetachItemFromArray
003ab454 T cJSON_DetachItemFromObject
003ab4e8 t cJSON_New_Item
003ab544 T cJSON_CreateObject
003ab56c T cJSON_CreateArray
003ab594 T cJSON_CreateFloat
003ab5fc T cJSON_CreateInt
003ab664 T cJSON_CreateBool
003ab694 T cJSON_CreateTrue
003ab6bc t cJSON_strdup
003ab714 T cJSON_CreateString
003ab75c T cJSON_AddItemToObject
003ab7e0 t create_reference
003ab854 T cJSON_AddItemReferenceToObject
003ab890 t print_string_ptr
003abb48 t print_value
003ac308 T cJSON_PrintUnformatted
003ac328 T cJSON_Print
003ac348 t parse_string
003ac768 t T.99
003ac860 t parse_value
003ad208 T cJSON_Parse
003ad2a8 t audcodec_process
003ad3f4 T AudCodec_CmdLine
003ad69c t nvtfs_open
003ad75c t nvtfs_unlink
003ad7c8 t nvtfs_mkdir
003ad834 t nvtfs_rmdir
003ad8a0 t nvtfs_rename
003ad93c t nvtfs_opendir
003ad9d4 t nvtfs_chdir
003ada48 t nvtfs_stat
003adab8 t nvtfs_getinfo
003adb88 t nvtfs_setinfo
003adc0c t nvtfs_fo_read
003adcd4 t nvtfs_fo_write
003add64 t nvtfs_fo_fsync
003addc8 t nvtfs_fo_close
003ade2c t nvtfs_fo_fstat
003ade90 t nvtfs_fo_getinfo
003ade98 t nvtfs_fo_setinfo
003adea0 t nvtfs_fo_dirread
003adf34 t nvtfs_fo_dirlseek
003adfcc t nvtfs_fo_dirclose
003ae030 t cyg_FileSys_GetVerInfo
003ae038 t cyg_FileSys_GetBuildDate
003ae040 t nvtfs_link
003ae06c t nvtfs_fo_ioctl
003ae098 t nvtfs_fo_lseek
003ae150 t findbuffer_node
003ae280 t dec_nlink
003ae354 t nvtfs_umount
003ae3b4 t del_direntry
003ae5f4 t add_direntry
003ae838 t nvtfs_mount
003ae954 t cyg_fs_SearchFileClose
003ae994 t cyg_fs_SearchFileRewind
003ae9d4 t cyg_FileSys_FlushFile
003aea14 t cyg_FileSys_SeekFile
003aea64 t cyg_FileSys_CloseFile
003aeaa4 t cyg_fs_SearchFile
003aeb20 t cyg_fs_getcwd
003aeb98 t cyg_FileSys_StatFile
003aec04 t cyg_FileSys_ReadFile
003aec80 t cyg_fs_SearchFileOpen
003aed00 t cyg_fs_chdir
003aed80 t cyg_FileSys_SetAttrib
003aee0c t cyg_FileSys_GetAttrib
003aeeb4 t cyg_FileSys_Stat
003aef9c t cyg_FileSys_DeleteDir
003af01c t cyg_FileSys_MakeDir
003af09c t cyg_FileSys_MoveFile
003af158 t cyg_FileSys_RenameFile
003af208 t cyg_FileSys_DeleteFile
003af288 t cyg_FileSys_WriteFile
003af304 t cyg_FileSys_OpenFile
003af390 T FileSysECOS_CmdLine
003af724 T nvtfs_ipc_sysreq_ack
003af7c8 T nvtfs_ipc_exec_fsapi
003af8b4 T nvtfs_ipc_uninit
003af90c T nvtfs_ipc_init
003af964 t ethsocket_cli_ipc_Data1_GetBsAlignAddr
003afab4 t ethsocket_cli_ipc_Data2_GetBsAlignAddr
003afc14 t ethsocket_cli_ipc_GetSndAddr
003afc84 T ethsocket_cli_ipc_wait_cmd
003afd08 T ethsocket_cli_ipc_send_ack
003afdd4 T ethsocket_cli_ipc_set_ack
003afe20 T ethsocket_cli_ipc_wait_ack
003afe74 T ethsocket_cli_ipc_exeapi
003aff58 T ethsocket_cli_ipc_uninit
003b004c t ETHSOCKETCLIECOS_Close
003b00b0 t ethsocket_cli_ipc_receive_thread
003b02a0 t ethsocket_cli_ipc_receive_thread_2_p1
003b02c4 t ethsocket_cli_ipc_receive_thread_1_p1
003b02e8 t ethsocket_cli_ipc_receive_thread_0_p1
003b030c t ethsocket_cli_ipc_receive_thread_2_p0
003b0330 t ethsocket_cli_ipc_receive_thread_1_p0
003b0354 t ethsocket_cli_ipc_receive_thread_0_p0
003b0378 t ethsocket_cli_ipc_CmdId_Send
003b0430 t ethsocket_cli_ipc_CmdId_Stop
003b0474 t ethsocket_cli_ipc_CmdId_Disconnect
003b0508 t ethsocket_cli_ipc_CmdId_Connect
003b0698 t ethsocket_cli_ipc_CmdId_Start
003b06b8 T ethsocket_cli_ipc_init_data2_bs_buf
003b08b4 T ethsocket_cli_ipc_init_data1_bs_buf
003b0a70 T ethsocket_cli_ipc_init
003b0f88 T ETHSOCKETCLIECOS_CmdLine
003b1438 T ethsocket_cli_ipc_notify
003b14dc t ethsocket_cli_ipc_notify_2_p1
003b1504 t ethsocket_cli_ipc_notify_1_p1
003b152c t ethsocket_cli_ipc_notify_0_p1
003b1554 t ethsocket_cli_ipc_notify_2_p0
003b157c t ethsocket_cli_ipc_notify_1_p0
003b15a4 t ethsocket_cli_ipc_notify_0_p0
003b15cc T ethsocket_cli_ipc_Data2_ParseBsFrame
003b2384 T ethsocket_cli_ipc_Data1_ParseBsFrame
003b3fc4 T ethsocket_cli_ipc_recv
003b4128 t ethsocket_cli_ipc_recv_2_p1
003b4150 t ethsocket_cli_ipc_recv_1_p1
003b4178 t ethsocket_cli_ipc_recv_0_p1
003b41a0 t ethsocket_cli_ipc_recv_2_p0
003b41c8 t ethsocket_cli_ipc_recv_1_p0
003b41f0 t ethsocket_cli_ipc_recv_0_p0
003b4218 T ethsocket_cli_uninstall
003b4280 T ethsocket_cli_install
003b43e8 T ethsocket_cli_send
003b4520 T ethsocket_cli_stop
003b45dc T ethsocket_cli_get_newobj
003b4680 T ethsocket_cli_start
003b4890 T ethsocket_cli_disconnect
003b48d0 t ethsocket_cli_proc
003b4fd0 T ethsocket_cli_connect
003b54f8 t rltk819x_wlan_dummy_init
003b5500 t rltk819x_wlan_int_vector
003b550c t rltk819x_wlan_deliver
003b5588 t rltk819x_wlan_poll
003b55a4 t rltk819x_wlan_recv
003b55c0 t rltk819x_wlan_send
003b55e4 t rltk819x_wlan_can_send
003b5600 t rltk819x_wlan_control
003b56f0 t rltk819x_wlan_stop
003b571c t rltk819x_wlan_start
003b5748 T set_ecos_pr_fun
003b5754 T triggered_wlan_tx_tasklet
003b5798 T rtl8192cd_wlan_cmd_dispatch
003b58cc t HalSdioGetCmdAddr8723ASdio
003b5954 t _cvrt2ftaddr
003b5a20 T _sd_cmd52_write
003b5b28 T _sd_write
003b5c64 T _sd_cmd52_read
003b5d64 T _sd_read
003b5e98 T sdio_release_host
003b5eb8 T sdio_claim_host
003b5ef8 T sd_write
003b5f60 T sdio_write_port
003b605c T sd_read
003b60c4 T sd_write32
003b6160 T sd_write8
003b61fc T sdio_write8
003b6250 T sd_read32
003b62e8 T sd_read8
003b6380 T sdio_read8
003b63cc T sd_cmd52_write
003b6434 T sdio_write32
003b64e4 T sdio_write16
003b652c T sd_cmd52_read
003b6594 T SdioLocalCmd52Read2Byte
003b65e4 T sdio_read32
003b66f0 t clear_bit
003b6744 T rtw_txinsn_require_bufsize
003b6800 T rtl8192cd_hal_fill_fwinfo
003b7224 t rtw_list_insert_tail
003b7240 t rtw_list_insert_head
003b725c T rtl8192cd_usb_tx_recycle
003b7310 T rtw_free_txinsn_resource
003b73dc T rtw_alloc_xmitbuf
003b74b4 T rtw_alloc_xmitbuf_ext
003b758c T rtw_alloc_xmitframe
003b7668 T need_sched_xmit_for_enqueue
003b7760 T need_sched_xmit_for_dequeue
003b78a0 T rtw_pspoll_sta_delete
003b79b8 T rtw_txservq_dequeue
003b7b50 T rtw_free_beacon_xmitbuf
003b7bc8 T rtw_free_xmitbuf_ext
003b7c40 T rtw_free_xmitframe
003b7ccc T rtw_send_xmitframe
003b7ecc T rtw_free_xmitframe_queue
003b7f90 T rtw_tcpack_servq_flush
003b8018 T rtw_txservq_flush
003b80d8 T enqueue_pending_xmitbuf
003b8194 T rtw_free_xmitbuf
003b823c T sdio_recycle_xmitbuf
003b8368 T rtw_pspoll_sta_enqueue
003b848c T sdio_submit_xmitbuf
003b86e0 T rtw_enqueue_xmitframe
003b89d4 T rtw_xmitbuf_aggregate
003b8c34 T rtl8192cd_signin_txdesc_shortcut
003b91dc T rtl8192cd_signin_txdesc
003ba1dc t rtw_enqueue_cmd
003ba27c T notify_slot_time_change
003ba2fc T notify_40M_RRSR_SC_change
003ba3bc T notify_mp_ctx_background
003ba47c T rtl8192cd_tx_restartQueue
003ba484 T rtl8192cd_tx_stopQueue
003ba498 T update_txinsn_stage2
003ba714 T update_txinsn_stage1
003bac68 t clear_bit
003bacbc T rtw_handle_xmit_fail
003bad84 T rtw_xmit_enqueue
003bae44 T rtl8192cd_firetx
003baf2c T rtw_xmit_decision
003bb08c T get_tx_sc_index
003bb118 T get_tx_sc_free_entry
003bb1e4 T get_tx_rate
003bb324 T RtsCheck
003bb4cc T aes_fill_encheader
003bb634 T tkip_fill_encheader
003bb7a4 T wep_fill_iv
003bb900 t rtl8192cd_tx_xmitSkbFail
003bb960 t tkip_mic_padding
003bbccc T get_skb_priority
003bbdc4 T assign_wlanseq
003bbf10 T get_lowest_tx_rate
003bbf4c t T.100
003bc020 T __rtl8192cd_firetx
003bc40c T rtl8192cd_tx_slowPath
003bc668 T __rtl8192cd_usb_start_xmit
003bccf4 T wlan_dev_kfree_skb_any
003bcd18 T wlan_search_priv
003bcd50 T rtl8192cd_set_hwaddr
003bce4c T get_center_channel
003bce98 T mod64
003bcef0 t check_bss_networktype
003bcfd8 T set_fixed_ie
003bd028 T set_ie
003bd08c T chklink_wkstaQ
003bd180 t update_bss
003bd1f0 t issue_probereq
003bd568 T issue_auth
003bda58 t updateTSF
003bdbe0 T clnt_switch_chan_to_bss
003bdd64 t join_bss
003bddb4 t debug_print_one_bss
003bdf88 T clean_for_join
003be198 T start_clnt_auth
003be32c T issue_ADDBAreq
003be598 T start_clnt_ss
003bea44 T init_beacon
003bedc4 T start_clnt_join
003bf1b4 T start_clnt_lookup
003bf8ac T unchainned_all_frag
003bf90c T check_adaptivity_test
003bfa14 T orForce20_Switch20Map
003bfa34 T get_rate_from_bit_value
003bfac0 T get_rate_index_from_ieee_value
003bfb08 T CheckCts2SelfEnable
003bfb14 T find_rts_rate
003bfb84 T IS_MCAST
003bfb90 T get_privacy
003bfc50 T get_mcast_privacy
003bfd00 T get_da
003bfd44 T get_hdrlen
003bfde8 T get_pnl
003bfdfc T get_pnh
003bfe28 T UseSwCrypto
003bfea8 T should_restrict_Nrate
003bff4c T find_rate
003c0274 T get_bssrate_set
003c03d4 T update_intel_sta_bitmap
003c0448 T is_passive_channel
003c0450 T syncMulticastCipher
003c04e4 T isDHCPpkt
003c0588 T rtl_kfree_skb
003c05a4 t _exit_critical_mutex
003c05c0 T eth2_2_wlanhdr
003c075c T eth_2_llc
003c0828 T check_protection_shortslot
003c0938 T free_sta_tx_skb
003c09b4 T _rtw_malloc
003c09d4 T _rtw_zmalloc
003c0a14 T free_sta_skb
003c0b58 T asoc_list_del
003c0c1c T release_stainfo
003c1024 T free_stainfo
003c1114 T release_wlanhdr_to_poll
003c11b8 T get_stainfo
003c12f4 T release_wlanllchdr_to_poll
003c1398 T release_mgtbuf_to_poll
003c143c T get_wlanhdr_from_poll
003c1520 T get_wlanllchdr_from_poll
003c1604 T get_mgtbuf_from_poll
003c16e8 T PwrPercent2PwrLevel
003c17b0 T CamResetAllEntry
003c17f4 T PHY_RF6052SetOFDMTxPower
003c2438 T CAM_read_entry
003c2574 T selectMinPowerIdex
003c27e8 T PHY_SetBBReg
003c28a0 T Check_92E_Spur_Valid
003c2950 T PHY_RF6052SetCCKTxPower
003c2dc0 T SetTxPowerLevel
003c2e50 T phy_RFSerialWrite
003c2ea0 T PHY_QueryBBReg
003c2f10 T phy_RFSerialRead
003c311c T PHY_QueryRFReg
003c3190 T PHY_SetRFReg
003c3274 T CamDeleteOneEntry
003c3414 T SwBWMode
003c3480 T PHY_IQCalibrate
003c34ac T SwChnl
003c3554 T set_slot_time
003c3570 T michael
003c37d8 T mix_key
003c3d50 T rc4
003c3e44 T rc4_frag_encrypt
003c3ee8 T tkip_icv
003c3fbc T wep_encrypt
003c418c T tkip_encrypt
003c43c4 T next_key
003c44e0 T shift_row
003c4564 T mix_column
003c473c T aes128k128d
003c4988 T construct_mic_iv
003c4a18 T construct_mic_header1
003c4ad4 T construct_mic_header2
003c4ba4 T construct_ctr_preload
003c4c78 T aesccmp_encrypt
003c5520 t rtl8192cd_proc_mib_auth
003c5a64 t rtl8192cd_proc_mib_dkeytbl
003c5c2c t rtl8192cd_proc_mib_gkeytbl
003c5f34 t rtl8192cd_proc_mib_operation
003c6624 t rtl8192cd_proc_mib_erp
003c6808 t rtl8192cd_proc_probe_info
003c6a08 t rtl8192cd_proc_sdio_dbginfo
003c6ce8 t rtl8192cd_proc_buf_info
003c6ff4 t rtl8192cd_proc_mib_11n
003c790c t rtl8192cd_proc_up_read
003c7944 T rtl8192cd_proc_up_write
003c7964 t rtl8192cd_proc_mib_misc
003c7cf4 t rtl8192cd_proc_mib_wsc
003c8018 T rtl8192cd_proc_help
003c80ac T rtl8192cd_proc_debug
003c8160 t rtl8192cd_proc_SSR_read
003c8440 t rtl8192cd_proc_mib_bssdesc
003c88c0 t rtl8192cd_proc_cam_info
003c8b1c t rtl8192cd_proc_mib_staconfig
003c9488 t rtl8192cd_proc_stats
003c9eb4 t rtl8192cd_proc_que_info
003caae0 t rtl8192cd_proc_sta_keyinfo
003caec8 t rtl8192cd_proc_mib_rf
003cbb14 t rtl8192cd_proc_mib_all
003cbd34 T rtl8192cd_proc_stats_clear
003cbd74 T rtl8192cd_proc_led
003cbdf4 t rtl8192cd_proc_stainfo
003ccdbc t rtl8192cd_proc_sta_dbginfo
003cd08c t rtl8192cd_proc_sta_queinfo
003cd76c t T.238
003cd950 t PasswordHash
003cda00 T derivePSK
003cdae0 T _atoi
003cdbd4 T delay_ms
003cdc34 T delay_us
003cdc50 T get_array_val
003cdcf0 T SHA1ProcessMessageBlock
003cdf44 T SHA1Input
003ce06c T SHA1PadMessage
003ce18c T SHA1Result
003ce250 T hmac_sha1
003ce490 t set_sw_LED0
003ce508 t set_sw_LED1
003ce580 t set_sw_LED2
003ce604 T control_wireless_led
003ce6ec T reset_FA_reg
003ce7a8 T set_DIG_state
003ce85c T DIG_for_site_survey
003ce890 T ODM_CmnInfoPtrArrayHook
003ce8dc T ODM_Write_DIG
003cf194 T ODM_delay_ms
003cf1b0 T ODM_GetRFReg
003cf1d4 T ODM_SetRFReg
003cf1f8 T ODM_GetBBReg
003cf214 T ODM_SetBBReg
003cf230 T ODM_Write4Byte
003cf24c T ODM_Write1Byte
003cf26c T ODM_Read4Byte
003cf28c T ODM_Read1Byte
003cf2ac T ODM_ResetIQKResult
003cf2b4 T phy_SimularityCompare_8188F
003cf968 T _PHY_PIModeSwitch8188F
003cfafc T _PHY_PathADDAOn8188F
003cfca0 T _PHY_ReloadADDARegisters8188F
003cfe58 T _PHY_SaveADDARegisters8188F
003d0010 T _PHY_PathAFillIQKMatrix8188F
003d076c T _PHY_PathAStandBy8188F
003d08e4 T phy_PathB_IQK_8188F
003d1068 T phy_PathA_RxIQK8188F
003d1fb8 T phy_PathA_IQK_8188F
003d26cc T _PHY_MACSettingCalibration8188F
003d2864 T _PHY_ReloadMACRegisters8188F
003d29f4 T _PHY_SaveMACRegisters8188F
003d2b84 T phy_IQCalibrate_8188F
003d3dfc T PHY_IQCalibrate_8188F
003d4fb8 T DoIQK_8188F
003d4ffc T PHY_RF6052SetBandwidth8188F
003d5150 T phy_PostSetBwMode8188F
003d5394 T phy_SpurCalibration_8188F
003d5874 T phy_SwChnl8188F
003d58dc T wrapper_can_send
003d5928 T wrapper_dsr
003d5970 T dump_free_txdone_queue
003d5998 T wrapper_start
003d5a24 T wrapper_que_free_tx_pkt
003d5aac T wrapper_recv
003d5b68 T dequeue_pending_txdone_entry
003d5bec T enqueue_pending_txdone_entry
003d5c30 T rtw_free_txdone_entry
003d5cac T rtw_alloc_txdone_entry
003d5d48 T wrapper_tx
003d6078 T wrapper_free_tx_queue
003d616c T wrapper_stop
003d61e4 T get_skb_data_u8
003d62a4 T get_skb_data_offset
003d6384 T skb_pull
003d641c T list_add
003d6434 T list_add_tail
003d644c T dump_skb_info
003d64c0 T alloc_skb_buf
003d6588 T memcpy_skb_data
003d6760 T kfree_skb
003d6878 T kfree_skb_chk_key
003d68c0 T alloc_skb
003d6abc T dev_alloc_skb
003d6b38 t timer_func
003d6b5c T timer_pending
003d6b68 T cyg_rtl_splx
003d6c8c T cyg_rtl_splinternal
003d6e10 T del_timer_sync
003d6eac T mod_timer
003d72c8 T rtl_show_timeouts
003d739c T dump_rtl_spl_info
003d7474 T show_interrupt_table
003d752c T show_main
003d7844 T CmdWlan
003d7960 T wlan0_main
003d798c T iwpriv_main
003d79ac T ifconfig_main
003d79cc T RunSystemCmd
003d7af8 T p2pcmd_main
003d7b48 T irf_main
003d7bbc T orf_main
003d7c38 T iw_main
003d7ca8 T idd_main
003d7d18 T ib_main
003d7d88 T ow_main
003d7dfc T od_main
003d7e70 T ob_main
003d7ee4 T setmib_main
003d7f58 T getmib_main
003d7fa8 T rssi_main
003d8040 T mac_main
003d81c0 T sp_main
003d82f4 T release_th_main
003d8374 T kill_th_main
003d8404 T get_thread_info
003d8608 T ps_main
003d8628 T get_mac_address
003d8778 T set_mac_address
003d88bc t setifaddr
003d8918 t setifnetmask
003d894c t setifbroadaddr
003d8974 t setifdstaddr
003d899c t ether_getaddr
003d8a24 t notealias
003d8acc t ether_status
003d8bc0 t in_getaddr
003d8d68 t setifipdst
003d8da4 t in_status
003d8ee4 T printb
003d9010 t setiflladdr
003d90ec t clone_destroy
003d9164 t deletetunnel
003d91ac t setifmtu
003d924c t setifmetric
003d92ec t settunnel
003d9478 t Perror
003d94e8 t setifflags
003d9618 t status
003d9b1c T ifconfig_main_real
003dab14 t set_private_cmd
003db47c T iwpriv_main_real
003db6dc T show_network
003dbe58 T ether_aton
003dc01c T iw_get_priv_size
003dc03c T iw_ether_ntop
003dc088 T iw_freq2float
003dc0fc T iw_float2freq
003dc1fc T iw_get_priv_info
003dc358 T iw_sockets_open
003dc388 t mmc_io_rw_direct
003dc440 T sdio_readb
003dc4ac T sdio_writeb
003dc4f8 t mmc_io_rw_extended
003dc5b8 T mmc_io_rw_ext_helper
003dc720 T sdio_memcpy_toio
003dc74c T sdio_writel
003dc788 T sdio_memcpy_fromio
003dc7b0 T sdio_readl
003dc820 T longjmp
003dc878 T rand_r
003dc8d0 T rand
003dc8f0 T srand
003dc8fc T system
003dc904 t permute_args
003dc9dc t parse_long_options
003dce3c t getopt_internal
003dd65c T __getopt_long
003dd65c W getopt_long
003dd684 T log10
003dd808 T floor
003dda30 T getenv
003ddbc8 T __ieee754_log10
003dddf8 T AacEncEncode
003de228 T AacEncOpen
003de780 T InitElementInfo
003de800 T InitElementBits
003de8f0 T CreateBitBuffer
003de948 T DeleteBitBuffer
003de970 T WriteBits
003dea08 T PsyNew
003dea78 T PsyDelete
003dea98 T PsyOutNew
003dead0 T PsyOutDelete
003deaf0 T psyMainInit
003debf8 T psyMain
003dfc68 T SpreadingMax
003dfd40 T CalcBandEnergy
003dfdd0 T CalcBandEnergyMS
003dfec0 t writeIndividualChannelStream
003e0540 T WriteBitstream
003e0e10 T QCOutDelete
003e0e30 T QCOutNew
003e0eb8 T QCDelete
003e0ed8 T QCInit
003e0fa0 T QCMain
003e1428 T updateBitres
003e14b8 T FinalizeBitConsumption
003e1608 T AdjustBitrate
003e16b0 T countStaticBitdemand
003e1af0 T InitBlockSwitching
003e1b90 T BlockSwitching
003e1fc8 T SyncBlockSwitching
003e2170 T InitPreEchoControl
003e21b8 T PreEchoControl
003e2350 T QuantizeSpectrum
003e2858 t count1_2_3_4_5_6_7_8_9_10_11
003e2be8 t count3_4_5_6_7_8_9_10_11
003e2f10 t count5_6_7_8_9_10_11
003e30e0 t count7_8_9_10_11
003e3278 t count9_10_11
003e33a8 t count11
003e3488 t countEsc
003e35f8 T bitCount
003e36b8 T codeValues
003e4088 T bitCountScalefactorDelta
003e40c0 T codeScalefactorDelta
003e4168 T groupShortData
003e4758 t initSpreading
003e4970 t initBarcValues
003e4c18 t initMinSnr
003e4e10 T InitPsyConfigurationLong
003e51c0 T InitPsyConfigurationShort
003e5568 T CalcFormFactor
003e5828 T EstimateScaleFactors
003e5bb0 t Shuffle
003e5cc8 t Radix8First
003e5ef0 t Radix4FFT
003e6148 t PreMDCT
003e6228 t PostMDCT
003e6308 T Mdct_Short
003e6428 t getScalefactorSpec
003e6528 T Transform_Real
003e7478 T bits2pe
003e74b0 T AdjThrInit
003e76a0 T AdjustThresholds
003e9920 T AdjThrUpdate
003e9940 T BuildInterface
003e9ac8 T MsStereoProcessing
003e9e00 T dynBitCount
003ea8a8 T L_mpy_ls
003ea8e8 T Div_32
003ea9b8 T iLog4
003eaa30 T rsqrt
003eac60 T pow2_xy
003eacc8 T L_mpy_wx
003ead00 T prepareSfbPe
003eade0 T calcSfbPe
003eb188 T _ZNSt15_List_node_base4hookEPS_
003eb1a4 T _ZNSt15_List_node_base6unhookEv
003eb1b8 T _ZdlPv
003eb1d8 T _ZdaPv
003eb1f4 T _Znam
003eb22c t _ZL16get_adjusted_ptrPKSt9type_infoS1_PPv
003eb2b8 t _ZL21base_of_encoded_valuehP15_Unwind_Context
003eb358 t _ZL28read_encoded_value_with_basehjPKhPj
003eb4ac t _ZL18read_encoded_valueP15_Unwind_ContexthPKhPj
003eb4f0 t _ZL17parse_lsda_headerP15_Unwind_ContextPKhP16lsda_header_info
003eb5ec t _ZL15get_ttype_entryP16lsda_header_infom
003eb67c t _ZL20check_exception_specP16lsda_header_infoPKSt9type_infoPvl
003eb738 T __cxa_call_unexpected
003eb840 T __gxx_personality_v0
003ebd68 T _ZNKSt9bad_alloc4whatEv
003ebd74 T _ZNSt9bad_allocD1Ev
003ebd9c T _ZNSt9bad_allocD0Ev
003ebdd4 T __cxa_rethrow
003ebe64 T __cxa_throw
003ebedc t _ZL23__gxx_exception_cleanup19_Unwind_Reason_CodeP17_Unwind_Exception
003ebf4c T _ZNSt9exceptionD2Ev
003ebf5c T _ZNSt9exceptionD1Ev
003ebf6c T _ZNSt13bad_exceptionD1Ev
003ebf7c T _ZNKSt9exception4whatEv
003ebf88 T _ZNKSt13bad_exception4whatEv
003ebf94 T _ZNSt9exceptionD0Ev
003ebfbc T _ZNSt13bad_exceptionD0Ev
003ebfe4 T __cxa_end_catch
003ec0a8 T __cxa_begin_catch
003ec174 T __cxa_call_terminate
003ec1d8 T _ZNK10__cxxabiv117__class_type_info10__do_catchEPKSt9type_infoPPvj
003ec214 T _ZNK10__cxxabiv117__class_type_info11__do_upcastEPKS0_PPv
003ec27c T _ZNK10__cxxabiv117__class_type_info20__do_find_public_srcElPKvPKS0_S2_
003ec298 T _ZNK10__cxxabiv117__class_type_info12__do_dyncastElNS0_10__sub_kindEPKS0_PKvS3_S5_RNS0_16__dyncast_resultE
003ec2ec T _ZNK10__cxxabiv117__class_type_info11__do_upcastEPKS0_PKvRNS0_15__upcast_resultE
003ec31c T _ZN10__cxxabiv117__class_type_infoD1Ev
003ec344 T _ZN10__cxxabiv117__class_type_infoD2Ev
003ec36c T _ZN10__cxxabiv117__class_type_infoD0Ev
003ec3a4 T _ZNSt9type_infoD2Ev
003ec3b4 T _ZNSt9type_infoD1Ev
003ec3c4 T _ZNKSt9type_info14__is_pointer_pEv
003ec3cc T _ZNKSt9type_info15__is_function_pEv
003ec3d4 T _ZNKSt9type_info10__do_catchEPKS_PPvj
003ec3e8 T _ZNKSt9type_info11__do_upcastEPKN10__cxxabiv117__class_type_infoEPPv
003ec3f0 T _ZNSt9type_infoD0Ev
003ec418 T __dynamic_cast
003ec560 T __cxa_get_globals_fast
003ec56c T __cxa_get_globals
003ec578 T _Znwm
003ec614 T _ZNK10__cxxabiv120__si_class_type_info20__do_find_public_srcElPKvPKNS_17__class_type_infoES2_
003ec650 T _ZNK10__cxxabiv120__si_class_type_info12__do_dyncastElNS_17__class_type_info10__sub_kindEPKS1_PKvS4_S6_RNS1_16__dyncast_resultE
003ec6ec T _ZNK10__cxxabiv120__si_class_type_info11__do_upcastEPKNS_17__class_type_infoEPKvRNS1_15__upcast_resultE
003ec770 T _ZN10__cxxabiv120__si_class_type_infoD1Ev
003ec798 T _ZN10__cxxabiv120__si_class_type_infoD0Ev
003ec7d0 t _GLOBAL__I___cxa_allocate_exception
003ec7d8 T __cxa_free_exception
003ec838 T __cxa_allocate_exception
003ec92c T _ZN10__cxxabiv111__terminateEPFvvE
003ec964 T _ZSt9terminatev
003ec97c T _ZN10__cxxabiv112__unexpectedEPFvvE
003ec994 T _ZSt10unexpectedv
003ec9ac T _ZN9__gnu_cxx27__verbose_terminate_handlerEv
003ecb38 t d_make_comp
003ecbd4 t d_number
003ecc3c t d_call_offset
003eccd8 t d_cv_qualifiers
003ecdf0 t d_template_param
003eceb4 t d_substitution
003ed0c4 t d_append_char
003ed130 t d_append_buffer
003ed18c t d_find_pack
003ed328 t d_append_string
003ed360 t d_source_name
003ed4dc t d_expression
003ed8e8 t d_type
003ee188 t d_bare_function_type
003ee2c8 t d_operator_name
003ee47c t d_unqualified_name
003ee6d0 t d_expr_primary
003ee868 t d_template_args
003ee9d0 t d_name
003eee70 t d_encoding
003ef4a0 t d_exprlist
003ef55c t d_print_comp
003f048c t d_demangle_callback
003f071c T __gcclibcxx_demangle_callback
003f0760 t d_print_mod
003f08a4 t d_print_function_type
003f0a3c t d_print_mod_list
003f0bd0 t d_print_array_type
003f0ccc t d_print_cast
003f0da8 t d_print_expr_op
003f0dd0 t d_print_subexpr
003f0e58 T __cxa_demangle
003f0f98 t d_growable_string_callback_adapter
003f1088 T __cxa_current_exception_type
003f10cc T __fixunssfsi
003f113c T __fixunsdfsi
003f11d0 T __fixdfdi
003f1254 T __fixunsdfdi
003f12ec T __floatdidf
003f1360 T __floatundidf
003f13d4 T __divdi3
003f1878 T __moddi3
003f1d54 T __udivdi3
003f21a0 T __umoddi3
003f2604 t _fpadd_parts
003f2824 T __subsf3
003f2894 T __addsf3
003f28f8 T __mulsf3
003f2ae0 T __divsf3
003f2c60 T __eqsf2
003f2cdc T __nesf2
003f2d58 T __gtsf2
003f2dd4 T __gesf2
003f2e50 T __ltsf2
003f2ecc T __lesf2
003f2f48 T __floatsisf
003f2fcc T __fixsfsi
003f3074 T __extendsfdf2
003f30bc T __floatunsisf
003f3170 t _fpadd_parts
003f35f0 T __subdf3
003f3668 T __adddf3
003f36d4 T __muldf3
003f39d4 T __divdf3
003f3c2c T __eqdf2
003f3cb0 T __nedf2
003f3d34 T __gtdf2
003f3db8 T __gedf2
003f3e3c T __ltdf2
003f3ec0 T __ledf2
003f3f44 T __unorddf2
003f3f98 T __floatsidf
003f404c T __fixdfsi
003f4118 T __make_dp
003f4150 T __truncdfsf2
003f41b4 T __floatunsidf
003f42b0 t read_sleb128
003f4300 T _Unwind_GetCFA
003f4308 T _Unwind_GetIP
003f4310 T _Unwind_GetIPInfo
003f4324 T _Unwind_SetIP
003f432c T _Unwind_GetLanguageSpecificData
003f4334 T _Unwind_GetRegionStart
003f433c T _Unwind_GetDataRelBase
003f4344 T _Unwind_GetTextRelBase
003f434c T _Unwind_DeleteException
003f4368 T _Unwind_SetGR
003f43dc T _Unwind_GetGR
003f443c t _Unwind_SetSpColumn
003f4480 T _Unwind_FindEnclosingFunction
003f44a8 t execute_cfa_program
003f4eec t uw_install_context_1
003f50a4 t execute_stack_op
003f5880 t uw_update_context_1
003f5cdc t uw_update_context
003f5d94 t uw_frame_state_for
003f64b4 t uw_init_context_1
003f6ae8 T _Unwind_Backtrace
003f6bbc t _Unwind_ForcedUnwind_Phase2
003f6cf8 T _Unwind_ForcedUnwind
003f6e18 t _Unwind_RaiseException_Phase2
003f6f1c T _Unwind_Resume
003f7044 T __frame_state_for
003f713c T _Unwind_RaiseException
003f7310 T _Unwind_Resume_or_Rethrow
003f7438 T __register_frame_info_bases
003f7480 T __register_frame_info
003f74c8 T __register_frame_info_table_bases
003f74fc T __register_frame_info_table
003f7530 t fde_unencoded_compare
003f755c t frame_downheap
003f768c t frame_heapsort
003f775c t size_of_encoded_value
003f77e4 t base_from_object
003f7870 t read_encoded_value_with_base
003f79d8 t get_cie_encoding
003f7b0c t classify_object_over_fdes
003f7ca0 t add_fdes
003f7e1c t fde_single_encoding_compare
003f7ec8 t fde_mixed_encoding_compare
003f7f98 t linear_search_fdes
003f8128 T __register_frame_table
003f8180 T __register_frame
003f81f8 t search_object
003f8944 T _Unwind_Find_FDE
003f8b3c T __deregister_frame_info_bases
003f8c20 T __deregister_frame_info
003f8c28 T __deregister_frame
003f8c54 T __ucmpdi2
003f8c94 T __pack_f
003f8e0c T __unpack_f
003f8ec8 T __fpcmp_parts_f
003f8fb0 T __make_fp
003f8fdc T __pack_d
003f9290 T __unpack_d
003f9388 T __fpcmp_parts_d
003f94a8 T __lshrdi3
003f94e8 T __ashldi3
003f9528 A _etext
003fa4a0 r __func__.3153
003fa4ac r __func__.3060
003fa4bc r __func__.3101
003fa6e4 r __func__.3485
003fad24 r __FUNCTION__.3337
003fad38 r _ZZN12Cyg_Mempolt2I35Cyg_Mempool_dlmalloc_ImplementationE4freeEPhiE19__PRETTY_FUNCTION__
003fada0 r _ZZN12Cyg_Mempolt2I35Cyg_Mempool_dlmalloc_ImplementationE9try_allocEiE19__PRETTY_FUNCTION__
003fae00 r _ZZN12Cyg_Mempolt2I35Cyg_Mempool_dlmalloc_ImplementationE10get_statusEtR18Cyg_Mempool_StatusE19__PRETTY_FUNCTION__
003fae80 r _ZZ7reallocE19__PRETTY_FUNCTION__
003faea0 r _ZZL13debug_reallocPhmPiE19__PRETTY_FUNCTION__
003faedc r _ZZN12Cyg_Mempolt2I35Cyg_Mempool_dlmalloc_ImplementationE12resize_allocEPhiPiE19__PRETTY_FUNCTION__
003faf58 r _ZZL10debug_freePhE19__PRETTY_FUNCTION__
003faf78 r _ZZ6callocE19__PRETTY_FUNCTION__
003faf98 r _ZZ4freeE19__PRETTY_FUNCTION__
003fafac r _ZZ6mallocE19__PRETTY_FUNCTION__
003fafc4 r _ZZ13cyg_fs_unlockE19__PRETTY_FUNCTION__
003faff4 r _ZZ11cyg_fs_lockE19__PRETTY_FUNCTION__
003fb4b4 r __func__.5838
003fb4c8 r __func__.5711
003fb804 r __func__.5468
003fb810 r __func__.5441
003fb824 r __func__.5405
003fbb3c r __func__.3794
003fdf1c r vSDIO_MEM_POOL_SIZE_MIN
003fe120 r C.12.3799
003fe150 r CSWTCH.152
003fed2c r __func__.4218
003fed3c r __func__.4187
003fed4c r __func__.4201
003fed5c r szCmdLine
003ff1c8 V _ZTV16MediaLookupTable
003ff1d8 V _ZTV7_Tables
003ff1e8 V _ZTV6Medium
003ff218 V _ZTS7_Tables
003ff224 V _ZTI7_Tables
003ff22c V _ZTS16MediaLookupTable
003ff240 V _ZTI16MediaLookupTable
003ff248 V _ZTS6Medium
003ff250 V _ZTI6Medium
003ff7d8 V _ZTV6NvtMgr
003ff7e8 V _ZTS6NvtMgr
003ff7f0 V _ZTI6NvtMgr
003ffaf4 r CSWTCH.120
003ffb00 V _ZTV13TaskScheduler
003ffb38 V _ZTV16UsageEnvironment
003ffb80 V _ZTS13TaskScheduler
003ffb90 V _ZTI13TaskScheduler
003ffb98 V _ZTS16UsageEnvironment
003ffbac V _ZTI16UsageEnvironment
003ffbb8 V _ZTVN14BasicHashTable8IteratorE
003ffbd0 V _ZTV14BasicHashTable
003ffbf0 V _ZTS14BasicHashTable
003ffc04 V _ZTI14BasicHashTable
003ffc10 V _ZTSN14BasicHashTable8IteratorE
003ffc2c V _ZTIN14BasicHashTable8IteratorE
003ffca0 V _ZTV18BasicTaskScheduler
003ffce0 V _ZTS18BasicTaskScheduler
003ffcf8 V _ZTI18BasicTaskScheduler
003ffd10 V _ZTV21BasicUsageEnvironment
003ffd58 V _ZTS21BasicUsageEnvironment
003ffd70 V _ZTI21BasicUsageEnvironment
003ffd80 V _ZTV10DelayQueue
003ffd98 V _ZTV15DelayQueueEntry
003ffdb0 V _ZTS10DelayQueue
003ffdc0 V _ZTI10DelayQueue
003ffdcc V _ZTS15DelayQueueEntry
003ffde0 V _ZTI15DelayQueueEntry
003ffea8 V _ZTV17DynamicRTSPServer
003fff00 V _ZTS17DynamicRTSPServer
003fff14 V _ZTI17DynamicRTSPServer
003fff20 V _ZTVN9HashTable8IteratorE
003fff38 V _ZTV9HashTable
003fff58 V _ZTS9HashTable
003fff64 V _ZTI9HashTable
003fff6c V _ZTSN9HashTable8IteratorE
003fff84 V _ZTIN9HashTable8IteratorE
003fff98 V _ZTV13AddressString
003fffa8 V _ZTVN22AddressPortLookupTable8IteratorE
003fffb8 V _ZTV22AddressPortLookupTable
003fffc8 V _ZTV14NetAddressList
003fffd8 V _ZTV10NetAddress
003fffe8 V _ZTS13AddressString
003ffff8 V _ZTI13AddressString
00400000 V _ZTS22AddressPortLookupTable
0040001c V _ZTI22AddressPortLookupTable
00400024 V _ZTSN22AddressPortLookupTable8IteratorE
00400048 V _ZTIN22AddressPortLookupTable8IteratorE
00400050 V _ZTS14NetAddressList
00400064 V _ZTI14NetAddressList
0040006c V _ZTS10NetAddress
0040007c V _ZTI10NetAddress
00400180 V _ZTV24NvtServerMediaSubsession
00400208 V _ZTS24NvtServerMediaSubsession
00400224 V _ZTI24NvtServerMediaSubsession
00400680 V _ZTV19NvtStreamFramerH265
004006e8 V _ZTV19NvtStreamFramerMeta
00400750 V _ZTV19NvtStreamFramerG711
004007b8 V _ZTV18NvtStreamFramerAAC
00400820 V _ZTV18NvtStreamFramerPCM
00400888 V _ZTV19NvtStreamFramerH264
004008f0 V _ZTV19NvtStreamFramerMJPG
00400958 V _ZTV15NvtStreamFramer
004009c0 V _ZTS19NvtStreamFramerMeta
004009d8 V _ZTI19NvtStreamFramerMeta
004009e4 V _ZTS19NvtStreamFramerG711
004009fc V _ZTI19NvtStreamFramerG711
00400a08 V _ZTS18NvtStreamFramerAAC
00400a20 V _ZTI18NvtStreamFramerAAC
00400a2c V _ZTS18NvtStreamFramerPCM
00400a44 V _ZTI18NvtStreamFramerPCM
00400a50 V _ZTS19NvtStreamFramerH265
00400a68 V _ZTI19NvtStreamFramerH265
00400a74 V _ZTS19NvtStreamFramerH264
00400a8c V _ZTI19NvtStreamFramerH264
00400a98 V _ZTS19NvtStreamFramerMJPG
00400ab0 V _ZTI19NvtStreamFramerMJPG
00400abc V _ZTS15NvtStreamFramer
00400ad0 V _ZTI15NvtStreamFramer
00400adc r _ZZN15NvtStreamFramer8DumpInfoEvE4C.72
00400c08 V _ZTV14NvtStreamQueue
00400c18 V _ZTS14NvtStreamQueue
00400c2c V _ZTI14NvtStreamQueue
00400c90 V _ZTV11StreamState
00400ca0 V _ZTV29OnDemandServerMediaSubsession
00400d28 V _ZTS11StreamState
00400d38 V _ZTI11StreamState
00400d40 V _ZTS29OnDemandServerMediaSubsession
00400d60 V _ZTI29OnDemandServerMediaSubsession
00400e78 V _ZTV12RTCPInstance
00400ea8 V _ZTS12RTCPInstance
00400eb8 V _ZTI12RTCPInstance
00400ec8 V _ZTV18RTCPMemberDatabase
00400ed8 V _ZTI18RTCPMemberDatabase
00400ee0 V _ZTS18RTCPMemberDatabase
00400f98 V _ZTV15tcpStreamRecord
00400fa8 V _ZTV16SocketDescriptor
00400fb8 V _ZTV12RTPInterface
00400fc8 V _ZTS16SocketDescriptor
00400fdc V _ZTI16SocketDescriptor
00400fe4 V _ZTS12RTPInterface
00400ff4 V _ZTI12RTPInterface
00400ffc V _ZTS15tcpStreamRecord
00401010 V _ZTI15tcpStreamRecord
00401050 V _ZTV20RTPTransmissionStats
00401060 V _ZTV22RTPTransmissionStatsDB
00401070 V _ZTV7RTPSink
004010c0 V _ZTS20RTPTransmissionStats
004010d8 V _ZTI20RTPTransmissionStats
004010e0 V _ZTS22RTPTransmissionStatsDB
004010fc V _ZTI22RTPTransmissionStatsDB
00401104 V _ZTS7RTPSink
00401110 V _ZTI7RTPSink
00401120 V _ZTV17RTPReceptionStats
00401130 V _ZTVN19RTPReceptionStatsDB8IteratorE
00401140 V _ZTS17RTPReceptionStats
00401154 V _ZTI17RTPReceptionStats
0040115c V _ZTSN19RTPReceptionStatsDB8IteratorE
00401180 V _ZTIN19RTPReceptionStatsDB8IteratorE
00401bc8 V _ZTVN10RTSPServer17RTSPClientSessionE
00401bf8 V _ZTVN10RTSPServer20RTSPClientConnection17ParamsForREGISTERE
00401c08 V _ZTVN10RTSPServer20RTSPClientConnectionE
00401c60 V _ZTV10RTSPServer
00401cb0 V _ZTS10RTSPServer
00401cc0 V _ZTI10RTSPServer
00401ccc V _ZTSN10RTSPServer17RTSPClientSessionE
00401cf0 V _ZTIN10RTSPServer17RTSPClientSessionE
00401cf8 V _ZTSN10RTSPServer20RTSPClientConnectionE
00401d20 V _ZTIN10RTSPServer20RTSPClientConnectionE
00401d28 V _ZTSN10RTSPServer20RTSPClientConnection17ParamsForREGISTERE
00401d60 V _ZTIN10RTSPServer20RTSPClientConnection17ParamsForREGISTERE
00401f40 V _ZTVN33RTSPServerSupportingHTTPStreaming43RTSPClientConnectionSupportingHTTPStreamingE
00401f98 V _ZTV33RTSPServerSupportingHTTPStreaming
00401ff0 V _ZTS33RTSPServerSupportingHTTPStreaming
00402014 V _ZTI33RTSPServerSupportingHTTPStreaming
00402020 V _ZTSN33RTSPServerSupportingHTTPStreaming43RTSPClientConnectionSupportingHTTPStreamingE
00402074 V _ZTIN33RTSPServerSupportingHTTPStreaming43RTSPClientConnectionSupportingHTTPStreamingE
004021f8 V _ZTV21ServerMediaSubsession
00402260 V _ZTV29ServerMediaSubsessionIterator
00402270 V _ZTV18ServerMediaSession
004022a0 V _ZTS21ServerMediaSubsession
004022b8 V _ZTI21ServerMediaSubsession
004022c4 V _ZTS29ServerMediaSubsessionIterator
004022e4 V _ZTI29ServerMediaSubsessionIterator
004022ec V _ZTS18ServerMediaSession
00402304 V _ZTI18ServerMediaSession
00402408 V _ZTV13TCPStreamSink
00402448 V _ZTS13TCPStreamSink
00402458 V _ZTI13TCPStreamSink
00402464 r _ZL10base64Char
004024a8 V _ZTV15HandlerIterator
004024b8 V _ZTV10HandlerSet
004024c8 V _ZTV17HandlerDescriptor
004024d8 V _ZTV19BasicTaskScheduler0
00402518 V _ZTS15HandlerIterator
0040252c V _ZTI15HandlerIterator
00402534 V _ZTS10HandlerSet
00402544 V _ZTI10HandlerSet
0040254c V _ZTS17HandlerDescriptor
00402560 V _ZTI17HandlerDescriptor
00402568 V _ZTS19BasicTaskScheduler0
00402580 V _ZTI19BasicTaskScheduler0
00402590 V _ZTV12AlarmHandler
004025a8 V _ZTI12AlarmHandler
004025b4 V _ZTS12AlarmHandler
00402668 V _ZTV12BasicUDPSink
004026a8 V _ZTS12BasicUDPSink
004026b8 V _ZTI12BasicUDPSink
004026c8 V _ZTV22BasicUsageEnvironment0
00402710 V _ZTS22BasicUsageEnvironment0
0040272c V _ZTI22BasicUsageEnvironment0
00402738 V _ZTV28ByteStreamMemoryBufferSource
004027a0 V _ZTS28ByteStreamMemoryBufferSource
004027c0 V _ZTI28ByteStreamMemoryBufferSource
004027d0 V _ZTV13Authenticator
004027e0 V _ZTS13Authenticator
004027f0 V _ZTI13Authenticator
004027f8 V _ZTV25FileServerMediaSubsession
00402880 V _ZTS25FileServerMediaSubsession
0040289c V _ZTI25FileServerMediaSubsession
004028a8 V _ZTV12FramedFilter
00402910 V _ZTS12FramedFilter
00402920 V _ZTI12FramedFilter
004029a0 V _ZTV12FramedSource
00402a08 V _ZTS12FramedSource
00402a18 V _ZTI12FramedSource
00402e24 r _ZZ9asctime_rE19__PRETTY_FUNCTION__
00402fc8 V _ZTV9Groupsock
00402fe0 V _ZTV10destRecord
00402ff0 V _ZTV12OutputSocket
00403008 V _ZTS9Groupsock
00403014 V _ZTI9Groupsock
00403020 V _ZTS10destRecord
00403030 V _ZTI10destRecord
00403038 V _ZTS12OutputSocket
00403048 V _ZTI12OutputSocket
004030c8 V _ZTV9MediaSink
00403108 V _ZTS9MediaSink
00403114 V _ZTI9MediaSink
00403158 V _ZTV11MediaSource
004031b0 V _ZTS11MediaSource
004031c0 V _ZTI11MediaSource
00403350 V _ZTV18MultiFramedRTPSink
004033c0 V _ZTS18MultiFramedRTPSink
004033d8 V _ZTI18MultiFramedRTPSink
00403438 V _ZTV6Socket
00403450 V _ZTVN23DirectedNetInterfaceSet8IteratorE
00403460 V _ZTV23DirectedNetInterfaceSet
00403470 V _ZTV12NetInterface
00403480 V _ZTS6Socket
00403488 V _ZTI6Socket
00403494 V _ZTS23DirectedNetInterfaceSet
004034b0 V _ZTI23DirectedNetInterfaceSet
004034b8 V _ZTSN23DirectedNetInterfaceSet8IteratorE
004034e0 V _ZTIN23DirectedNetInterfaceSet8IteratorE
004034e8 V _ZTS12NetInterface
004034f8 V _ZTI12NetInterface
00403768 V _ZTV14NvtRTPSinkMeta
004037d8 V _ZTV14NvtRTPSinkG711
00403848 V _ZTV13NvtRTPSinkAAC
004038b8 V _ZTV13NvtRTPSinkPCM
00403928 V _ZTV14NvtRTPSinkH265
00403998 V _ZTV14NvtRTPSinkH264
00403a08 V _ZTV14NvtRTPSinkMJPG
00403a78 V _ZTV15NvtRTPSinkAudio
00403ae8 V _ZTV15NvtRTPSinkVideo
00403b58 V _ZTV10NvtRTPSink
00403bc8 V _ZTS14NvtRTPSinkMeta
00403bdc V _ZTI14NvtRTPSinkMeta
00403be8 V _ZTS14NvtRTPSinkG711
00403bfc V _ZTI14NvtRTPSinkG711
00403c08 V _ZTS13NvtRTPSinkAAC
00403c18 V _ZTI13NvtRTPSinkAAC
00403c24 V _ZTS13NvtRTPSinkPCM
00403c34 V _ZTI13NvtRTPSinkPCM
00403c40 V _ZTS14NvtRTPSinkH265
00403c54 V _ZTI14NvtRTPSinkH265
00403c60 V _ZTS14NvtRTPSinkH264
00403c74 V _ZTI14NvtRTPSinkH264
00403c80 V _ZTS14NvtRTPSinkMJPG
00403c94 V _ZTI14NvtRTPSinkMJPG
00403ca0 V _ZTS15NvtRTPSinkAudio
00403cb4 V _ZTI15NvtRTPSinkAudio
00403cc0 V _ZTS15NvtRTPSinkVideo
00403cd4 V _ZTI15NvtRTPSinkVideo
00403ce0 V _ZTS10NvtRTPSink
00403cf0 V _ZTI10NvtRTPSink
00403cfc r _ZL26samplingFrequencyFromIndex
00403e18 V _ZTV6Locale
00403e28 V _ZTS6Locale
00403e30 V _ZTI6Locale
00403fac r __func__.4888
00403fc0 r __func__.4868
00403fd0 r __func__.4837
00403fe8 r __func__.4877
0040411c R kws_forward_twiddles
0040451c R forward_super_twiddles
00404984 R loChan_fixed
00404b84 R loWt_fixed
00404f84 R hamwin_fixed
00405344 r C.14.2832
00405c44 r __func__.2751
00405c64 r __func__.2714
00405c84 r __func__.2698
00405ca4 r __func__.2657
00405cc4 r __func__.2629
00405ce4 r __func__.2595
00405d04 r __func__.2496
00405d1c r __func__.2487
00406014 r __func__.3672
00406030 r __func__.3723
0040604c r __func__.3768
0040606c r __func__.3504
00406088 r __func__.3562
004060a8 r __func__.3639
004060c8 r __func__.3862
004060dc r __func__.3829
00406720 r __func__.4280
0040673c r __func__.4251
00406758 r __func__.4188
00406770 r __func__.4147
00406788 r __func__.3392
004067a0 r __func__.4107
004067b8 r __func__.4065
004067d0 r __func__.4012
004067e4 r __func__.3938
004067fc r __func__.3927
00406814 r __func__.3916
0040682c r __func__.3896
00406844 r __func__.3817
00406864 r __func__.3737
00406884 r __func__.3656
004068a0 r __func__.3363
004068b4 r __func__.3330
00406c3c r __func__.4562
00406c58 r __func__.4541
00406c70 r __func__.4497
00406c88 r __func__.4483
00406ca0 r __func__.4435
00406cb4 r __func__.4413
00406cd0 r __func__.4512
00406cf0 r __func__.4528
00406d08 r __func__.4393
00406df0 r __func__.2428
004072fc r __FUNCTION__.5400
0040731c r __func__.5523
0040732c r __func__.5485
00407340 r __func__.5340
00407354 r __func__.5273
0040741c r __FUNCTION__.2875
00407430 r __FUNCTION__.2826
00407444 r __func__.2796
00407458 r __FUNCTION__.2755
0040746c r __func__.2640
004079e4 r _ZZ18__cxa_pure_virtualE19__PRETTY_FUNCTION__
00407d88 r _ZZN12Cyg_SpinLock5clearEvE19__PRETTY_FUNCTION__
00407da4 r _ZZN12Cyg_SpinLock4spinEvE19__PRETTY_FUNCTION__
00407dc0 r _ZZN12Cyg_SpinLockD1EvE19__PRETTY_FUNCTION__
00407de0 r _ZZN10Cyg_Thread8set_dataEijE19__PRETTY_FUNCTION__
00407e18 r _ZZN10Cyg_Thread8get_dataEiE19__PRETTY_FUNCTION__
00407e50 r _ZZ25cyg_thread_new_data_indexE19__PRETTY_FUNCTION__
00407e7c r _ZZ19cyg_thread_get_infoE19__PRETTY_FUNCTION__
00407ec8 r _ZZ19cyg_thread_get_nextE19__PRETTY_FUNCTION__
00407f04 r _ZZ20cyg_scheduler_unlockE19__PRETTY_FUNCTION__
00407f20 r _ZZ18cyg_scheduler_lockE19__PRETTY_FUNCTION__
004081f0 r _ZZ16idle_thread_mainjE19__PRETTY_FUNCTION__
00408214 r _ZZN10Cyg_Thread12force_resumeEvE19__PRETTY_FUNCTION__
00408234 r _ZZN10Cyg_Thread6resumeEvE19__PRETTY_FUNCTION__
00408250 r _ZZN10Cyg_Thread7suspendEvE19__PRETTY_FUNCTION__
0040826c r _ZZN10Cyg_Thread5sleepEvE19__PRETTY_FUNCTION__
0040828c r _ZZN10Cyg_Thread12reinitializeEvE19__PRETTY_FUNCTION__
004082ac r _ZZN18Cyg_HardwareThread12attach_stackEjjE19__PRETTY_FUNCTION__
004082ec r _ZZN18Cyg_HardwareThread11check_stackEvE19__PRETTY_FUNCTION__
00408398 r _ZZN21Cyg_Exception_Control17deliver_exceptionEijE19__PRETTY_FUNCTION__
004083e0 r _ZZN21Cyg_Exception_Control18register_exceptionEiPFvjijEjPS1_PjE19__PRETTY_FUNCTION__
00408590 r _ZZN12Cyg_SpinLockD1EvE19__PRETTY_FUNCTION__
004085b0 r _ZZN13Cyg_Interrupt21acknowledge_interruptEjE19__PRETTY_FUNCTION__
004085f0 r _ZZN13Cyg_Interrupt16unmask_interruptEjE19__PRETTY_FUNCTION__
00408628 r _ZZN13Cyg_Interrupt14mask_interruptEjE19__PRETTY_FUNCTION__
00408660 r _ZZN13Cyg_Interrupt17enable_interruptsEvE19__PRETTY_FUNCTION__
00408690 r _ZZN12Cyg_SpinLock5clearEvE19__PRETTY_FUNCTION__
004086ac r _ZZN12Cyg_SpinLock4spinEvE19__PRETTY_FUNCTION__
004086c8 r _ZZN13Cyg_Interrupt6detachEvE19__PRETTY_FUNCTION__
004086e8 r _ZZN13Cyg_Interrupt6attachEvE19__PRETTY_FUNCTION__
00408708 r _ZZN13Cyg_Interrupt17call_pending_DSRsEvE19__PRETTY_FUNCTION__
00408738 r _ZZN13Cyg_Interrupt23call_pending_DSRs_innerEvE19__PRETTY_FUNCTION__
00408904 r _ZZN30Cyg_SchedThread_Implementation5yieldEvE19__PRETTY_FUNCTION__
00408934 r _ZZN28Cyg_Scheduler_Implementation13timeslice_cpuEvE19__PRETTY_FUNCTION__
00408968 r _ZZN28Cyg_Scheduler_Implementation10rem_threadEP10Cyg_ThreadE19__PRETTY_FUNCTION__
004089a4 r _ZZN28Cyg_Scheduler_Implementation10add_threadEP10Cyg_ThreadE19__PRETTY_FUNCTION__
004089e0 r _ZZN28Cyg_Scheduler_Implementation8scheduleEvE19__PRETTY_FUNCTION__
00408b50 r _ZZN15Cyg_SchedThread22clear_priority_ceilingEvE19__PRETTY_FUNCTION__
00408b80 r _ZZN15Cyg_SchedThread20set_priority_ceilingEiE19__PRETTY_FUNCTION__
00408bbc r _ZZN15Cyg_SchedThread19disinherit_priorityEvE19__PRETTY_FUNCTION__
00408be8 r _ZZN15Cyg_SchedThread16inherit_priorityEP10Cyg_ThreadE19__PRETTY_FUNCTION__
00408c1c r _ZZN15Cyg_SchedThread24clear_inherited_priorityEvE19__PRETTY_FUNCTION__
00408c50 r _ZZN15Cyg_SchedThread22set_inherited_priorityEiP10Cyg_ThreadE19__PRETTY_FUNCTION__
00408c98 r _ZZN13Cyg_Scheduler9start_cpuEvE19__PRETTY_FUNCTION__
00408cc0 r _ZZN23Cyg_Scheduler_SchedLock14set_sched_lockEjE19__PRETTY_FUNCTION__
00408d00 r _ZZN13Cyg_Scheduler12unlock_innerEjE19__PRETTY_FUNCTION__
00408d38 r _ZZN18Cyg_HardwareThread11check_stackEvE19__PRETTY_FUNCTION__
00408d60 r _ZZN23Cyg_Scheduler_SchedLock15zero_sched_lockEvE19__PRETTY_FUNCTION__
00408e28 r _ZZN22Cyg_Counting_SemaphoreD1EvE19__PRETTY_FUNCTION__
00408f08 r _ZZN8Cyg_Flag4pollEjhE19__PRETTY_FUNCTION__
00408f40 r _ZZN8Cyg_Flag4waitEjhyE19__PRETTY_FUNCTION__
00408f88 r _ZZN8Cyg_Flag4waitEjhE19__PRETTY_FUNCTION__
00408fc0 r _ZZN8Cyg_Flag7setbitsEjE19__PRETTY_FUNCTION__
00409100 r _ZZN10Cyg_Mboxt2IPvLi256EE13wakeup_winnerERKS0_E19__PRETTY_FUNCTION__
00409160 r _ZZN10Cyg_Mboxt2IPvLi256EE3putES0_E19__PRETTY_FUNCTION__
004091b4 r _ZZN10Cyg_Mboxt2IPvLi256EE13wakeup_putterEvE19__PRETTY_FUNCTION__
0040920c r _ZZN10Cyg_Mboxt2IPvLi256EE3getERS0_E19__PRETTY_FUNCTION__
004093f0 r _ZZN22Cyg_Condition_Variable10wait_innerEP9Cyg_MutexyE19__PRETTY_FUNCTION__
00409438 r _ZZN22Cyg_Condition_Variable9broadcastEvE19__PRETTY_FUNCTION__
00409464 r _ZZN22Cyg_Condition_Variable10wait_innerEP9Cyg_MutexE19__PRETTY_FUNCTION__
0040949c r _ZZN22Cyg_Condition_VariableD1EvE19__PRETTY_FUNCTION__
004094d0 r _ZZN22Cyg_Condition_VariableC1ER9Cyg_MutexE19__PRETTY_FUNCTION__
0040950c r _ZZN9Cyg_Mutex6unlockEvE19__PRETTY_FUNCTION__
00409528 r _ZZN9Cyg_Mutex7trylockEvE19__PRETTY_FUNCTION__
00409548 r _ZZN9Cyg_Mutex4lockEvE19__PRETTY_FUNCTION__
00409564 r _ZZN9Cyg_MutexD1EvE19__PRETTY_FUNCTION__
00409af8 r _ZZN35Cyg_Mempool_dlmalloc_Implementation10get_statusEtR18Cyg_Mempool_StatusE19__PRETTY_FUNCTION__
00409b60 r _ZZN35Cyg_Mempool_dlmalloc_Implementation23do_check_malloced_chunkEPNS_12malloc_chunkEmE19__PRETTY_FUNCTION__
00409be0 r _ZZN35Cyg_Mempool_dlmalloc_Implementation20do_check_inuse_chunkEPNS_12malloc_chunkEE19__PRETTY_FUNCTION__
00409c54 r _ZZN35Cyg_Mempool_dlmalloc_Implementation19do_check_free_chunkEPNS_12malloc_chunkEE19__PRETTY_FUNCTION__
00409cc8 r _ZZN35Cyg_Mempool_dlmalloc_Implementation14do_check_chunkEPNS_12malloc_chunkEE19__PRETTY_FUNCTION__
00409dbc r _ZZ5abortE19__PRETTY_FUNCTION__
00409f28 r _ZZN15Cyg_StdioStream12flush_outputEvE19__PRETTY_FUNCTION__
00409f54 r _ZZN15Cyg_StdioStream7lock_meEvE19__PRETTY_FUNCTION__
00409f78 r _ZZN15Cyg_StdioStream9unlock_meEvE19__PRETTY_FUNCTION__
00409f9c r _ZZN15Cyg_StdioStream10trylock_meEvE19__PRETTY_FUNCTION__
0040a238 r _ZZ9vsscanf_sE7basefix
0040a294 R stderr
0040a298 r _ZZN15Cyg_StdioStreamD1EvE19__PRETTY_FUNCTION__
0040a2bc r _ZZN15Cyg_StdioStream9unlock_meEvE19__PRETTY_FUNCTION__
0040a2e0 r CSWTCH.109
0040a2ec R stdout
0040a4b8 r _ZZN15Cyg_StdioStream5writeEPKhjPjE19__PRETTY_FUNCTION__
0040a508 r _ZZN15Cyg_StdioStream7lock_meEvE19__PRETTY_FUNCTION__
0040a52c r _ZZN21Cyg_StdioStreamBuffer17set_bytes_writtenEjE19__PRETTY_FUNCTION__
0040a568 r _ZZN15Cyg_StdioStream9unlock_meEvE19__PRETTY_FUNCTION__
0040a58c r _ZZN15Cyg_StdioStream21flush_output_unlockedEvE19__PRETTY_FUNCTION__
0040a5c0 r _ZZN15Cyg_StdioStream9peek_byteEPhE19__PRETTY_FUNCTION__
0040a5f4 r _ZZN15Cyg_StdioStream9read_byteEPhE19__PRETTY_FUNCTION__
0040a628 r _ZZN21Cyg_StdioStreamBuffer14set_bytes_readEjE19__PRETTY_FUNCTION__
0040a664 r _ZZN15Cyg_StdioStream18refill_read_bufferEvE19__PRETTY_FUNCTION__
0040a694 r _ZZN15Cyg_StdioStream10initializeEiNS_8OpenModeEiiijPhE19__PRETTY_FUNCTION__
0040a718 r _ZZN15Cyg_StdioStream9set_errorEiE19__PRETTY_FUNCTION__
0040a744 r _ZZN15Cyg_StdioStream9unlock_meEvE19__PRETTY_FUNCTION__
0040ab98 r _ZZ7vfscanfE7basefix
0040abbc r _ZZN15Cyg_StdioStream12set_positionEjiE19__PRETTY_FUNCTION__
0040abf4 r _ZZN15Cyg_StdioStream9unlock_meEvE19__PRETTY_FUNCTION__
0040ac18 r _ZZN15Cyg_StdioStream23bytes_available_to_readEvE19__PRETTY_FUNCTION__
0040ac80 r _ZZN15Cyg_StdioStream10write_byteEhE19__PRETTY_FUNCTION__
0040aeb4 r _ZZN15Cyg_StdioStream9get_errorEvE19__PRETTY_FUNCTION__
0040aedc r _ZZN15Cyg_StdioStream9unlock_meEvE19__PRETTY_FUNCTION__
0040af00 r CSWTCH.318
0040afc4 r _ZZ5qsortE19__PRETTY_FUNCTION__
0040b020 R Cyg_libc_str_null_mask_1
0040b028 R Cyg_libc_str_null_mask_2
0040b09c r _ZZ8__strtokE19__PRETTY_FUNCTION__
0040b0c0 r _ZZN10Cyg_Thread12get_data_ptrEiE19__PRETTY_FUNCTION__
0040b408 r _ZZ8strftimeE19__PRETTY_FUNCTION__
0040b440 r _ZZL9do_formathjPcPK2tmE19__PRETTY_FUNCTION__
0040b59c R cyg_libc_time_day_name
0040b5e4 R cyg_libc_time_day_name_len
0040b5ec R cyg_libc_time_month_name
0040b664 R cyg_libc_time_month_name_len
0040b670 R cyg_libc_time_month_lengths
0040b688 r _ZZ18cyg_libc_time_itoaE19__PRETTY_FUNCTION__
0040b6d8 R __infinity
0040bcf0 r CSWTCH.1
0040c2a8 r _ZZN10Cyg_Thread12get_data_ptrEiE19__PRETTY_FUNCTION__
0040c448 r _ZZ25pthread_attr_setstacksizeE19__PRETTY_FUNCTION__
0040c480 r _ZZ14pthread_createE13name_template
0040c494 r _ZZ14pthread_createE19__PRETTY_FUNCTION__
0040c4e4 r _ZZN10Cyg_Thread8set_dataEijE19__PRETTY_FUNCTION__
0040c51c r _ZZN10Cyg_Thread8get_dataEiE19__PRETTY_FUNCTION__
0040c5e4 r _ZZ9nanosleepE19__PRETTY_FUNCTION__
0040c610 r _ZZ21cyg_ticks_to_timespecE19__PRETTY_FUNCTION__
0040c71c r _ZZ19cyg_deliver_signalsE19__PRETTY_FUNCTION__
0040c73c r _ZL24exception_signal_mapping
0040c80c r _ZZ17cyg_fs_get_attribE19__PRETTY_FUNCTION__
0040c844 r _ZZ17cyg_fs_set_attribE19__PRETTY_FUNCTION__
0040c878 r _ZZ4statE19__PRETTY_FUNCTION__
0040c898 r _ZZ5chdirE19__PRETTY_FUNCTION__
0040c8b0 r _ZZ6renameE19__PRETTY_FUNCTION__
0040c8d8 r _ZZ5rmdirE19__PRETTY_FUNCTION__
0040c8f0 r _ZZ5mkdirE19__PRETTY_FUNCTION__
0040c910 r _ZZ6unlinkE19__PRETTY_FUNCTION__
0040c928 r _ZZ4openE19__PRETTY_FUNCTION__
0040c9a4 r _ZZ7opendirE19__PRETTY_FUNCTION__
0040cb9c r __PRETTY_FUNCTION__.5296
0040cbac r __PRETTY_FUNCTION__.5137
0040cbbc r __FUNCTION__.4866
0040cbcc r __PRETTY_FUNCTION__.5396
0040d094 r __PRETTY_FUNCTION__.3898
0040d6e0 r __func__.4808
0040d6f8 r __func__.4777
0040d710 r C.50.4464
0040d944 r CSWTCH.31
0040dcf4 r TFTP_tag
0040dcf8 r __PRETTY_FUNCTION__.4505
0040dd04 r __PRETTY_FUNCTION__.4522
0040dd10 r __PRETTY_FUNCTION__.4537
0040dd1c r errmsg
0040dd3c r __PRETTY_FUNCTION__.4555
0040e2d8 r __FUNCTION__.5162
0040e2e8 r __PRETTY_FUNCTION__.4979
0040e2fc r __FUNCTION__.4881
0040e310 r __FUNCTION__.4869
0040e324 r __FUNCTION__.4857
0040e334 r __PRETTY_FUNCTION__.4617
0040e348 r __PRETTY_FUNCTION__.4562
0040e49c r __PRETTY_FUNCTION__.3393
0040e4a8 r __PRETTY_FUNCTION__.3336
0040e4b4 r __PRETTY_FUNCTION__.3279
0040e698 r __PRETTY_FUNCTION__.3424
0040e6ac r __PRETTY_FUNCTION__.3348
0040e6bc r __PRETTY_FUNCTION__.3291
0040eb38 r __FUNCTION__.6234
0040eb44 r __FUNCTION__.5466
0040ebb4 r CSWTCH.90
0040ebc0 r CSWTCH.93
0040edac r normal_chars
0040f08c r mtutab.5903
0040f908 r tcp_outflags
0040f938 r CSWTCH.77
0040f9d4 r __func__.5430
0040fb90 r __FUNCTION__.5788
0040ff80 r __PRETTY_FUNCTION__.5813
0040ff94 r __PRETTY_FUNCTION__.5752
0040ffa8 r CSWTCH.126
00410110 r _ZZL19construct_converterPN9Cyg_Clock9converterEyyyyE19__PRETTY_FUNCTION__
00410170 r _ZZL19construct_converterPN9Cyg_Clock9converterEyyyyE6primes
004101d0 r _ZZN11Cyg_Counter9rem_alarmEP9Cyg_AlarmE19__PRETTY_FUNCTION__
004101f8 r _ZZN11Cyg_Counter9add_alarmEP9Cyg_AlarmE19__PRETTY_FUNCTION__
00410220 r _ZZN11Cyg_Counter4tickEjE19__PRETTY_FUNCTION__
004102bc r _ZZ20cyg_mempool_var_freeE19__PRETTY_FUNCTION__
00410384 r _ZZ5_exitE19__PRETTY_FUNCTION__
0041048c r _ZZ31cyg_libc_invoke_atexit_handlersE19__PRETTY_FUNCTION__
00410544 r _ZZ20cyg_libc_invoke_mainE19__PRETTY_FUNCTION__
00410600 r _ZZ4mainE19__PRETTY_FUNCTION__
00410618 r _ZZN15Cyg_StdioStream11unread_byteEhE19__PRETTY_FUNCTION__
0041064c r _ZZN15Cyg_StdioStream9unlock_meEvE19__PRETTY_FUNCTION__
004106c0 r TWO52
00410738 r bp
00410748 r dp_l
00410758 r dp_h
00410848 r fmt.3629
00410854 r digits.3595
004108dc r in_masks
00410c14 r _ZZN12Cyg_Mempolt2I32Cyg_Mempool_Fixed_ImplementationE10get_statusEtR18Cyg_Mempool_StatusE19__PRETTY_FUNCTION__
00410c94 r _ZZN32Cyg_Mempool_Fixed_Implementation9try_allocEiE19__PRETTY_FUNCTION__
00410cd8 r _ZZN12Cyg_Mempolt2I32Cyg_Mempool_Fixed_ImplementationE9try_allocEiE19__PRETTY_FUNCTION__
00410d38 r _ZZN32Cyg_Mempool_Fixed_ImplementationC1EPhijE19__PRETTY_FUNCTION__
00410f4c r _ZZN12Cyg_Mempolt2I35Cyg_Mempool_Variable_ImplementationE10get_statusEtR18Cyg_Mempool_StatusE19__PRETTY_FUNCTION__
00410fcc r _ZZN35Cyg_Mempool_Variable_Implementation10get_statusEtR18Cyg_Mempool_StatusE19__PRETTY_FUNCTION__
00411034 r _ZZN12Cyg_Mempolt2I35Cyg_Mempool_Variable_ImplementationE4freeEPhiE19__PRETTY_FUNCTION__
0041109c r _ZZN35Cyg_Mempool_Variable_Implementation4freeEPhiE19__PRETTY_FUNCTION__
004110e8 r _ZZN35Cyg_Mempool_Variable_Implementation9try_allocEiE19__PRETTY_FUNCTION__
00411130 r _ZZN12Cyg_Mempolt2I35Cyg_Mempool_Variable_ImplementationE9try_allocEiE19__PRETTY_FUNCTION__
00411190 r _ZZN12Cyg_Mempolt2I35Cyg_Mempool_Variable_ImplementationE5allocEiE19__PRETTY_FUNCTION__
004111ec r _ZZN35Cyg_Mempool_Variable_ImplementationC1EPhijE19__PRETTY_FUNCTION__
00411f50 r __func__.8313
00411f64 r __func__.7500
00411f7c r __func__.6679
00412ea8 r __func__.5485
00412ebc r __func__.5300
00412ed8 R usage_shortstr
00412f28 R usage_longstr
00413988 R version
00413998 R test_start_time
004139f8 R test_start_bytes
00413a5c R test_start_blocks
00413ac0 R report_time
00413acc R report_connecting
00413aec R report_reverse
00413b18 R report_accepted
00413b40 R report_cookie
00413b54 R report_connected
00413b84 R report_omit_done
00413bb0 R report_diskfile
00413bd4 R report_done
00413be4 R report_bw_header
00413c18 R report_bw_retrans_header
00413c54 R report_bw_retrans_cwnd_header
00413c98 R report_bw_udp_header
00413cf0 R report_bw_udp_sender_header
00413d38 R report_bw_format
00413d74 R report_bw_retrans_format
00413db0 R report_bw_retrans_cwnd_format
00413dec R report_bw_udp_format
00413e30 R report_bw_udp_sender_format
00413e60 R report_summary
00413e84 R report_sum_bw_format
00413ec0 R report_sum_bw_retrans_format
00413efc R report_sum_bw_udp_format
00413f40 R report_sum_bw_udp_sender_format
00413f70 R report_omitted
00413f7c R report_bw_separator
00413fb0 R report_sum_outoforder
00413fec R report_datagrams
00414008 R report_cpu
0041405c R report_local
00414064 R report_remote
0041406c R report_sender
00414074 R report_receiver
004141f8 r __func__.6352
0041420c r __func__.6110
004145e8 R conversion_bytes
00414608 R conversion_bits
004146fc r firstByteMark
004147b8 r __func__.4192
004147cc r __func__.4163
004147dc r __func__.4177
004149fc r __func__.5084
00414a08 r __func__.5293
00414a18 r __func__.5274
00414a28 r __func__.4939
00414a34 r __func__.5837
00414a48 r __func__.5789
00414a5c r __func__.5817
00414a70 r __func__.5826
00414b3c r __func__.2155
00414b54 r __func__.2138
00414b6c r __func__.2125
00414b80 r __func__.2115
00415994 r __func__.5699
004159b0 r __func__.5672
004159c8 r __func__.5659
004159e4 r __func__.5643
00415a00 r __func__.5625
00415a1c r __func__.5575
00415a38 r gThread
00415a50 r __func__.5462
00415a68 r gCmdFpTbl
00415ac0 r __func__.5304
00415ae4 r gNotify
00415afc r gRecv
00415b14 r __func__.5349
00415b34 r __func__.3646
00415b54 r __func__.3633
00415b74 r __func__.5433
00415b98 r __func__.5407
00415bbc r __func__.5256
00415bd4 r __func__.4769
00415bfc r __func__.3800
00415c24 r __func__.3694
00415e0c r proc_id_tbl
00415e3c r __PRETTY_FUNCTION__.5110
004163ec r __func__.15038
004163fc r __func__.14633
00416408 r __func__.14588
00416414 r __func__.14571
00416420 r __func__.14527
0041642c r __func__.14511
00416438 r __func__.14463
00416444 r __func__.14412
00416454 r __func__.14376
00416710 R RATE_20M_2SS_LGI
00416750 R RATE_40M_2SS_LGI
004167cc r __PRETTY_FUNCTION__.4392
00416f38 r CSWTCH.221
00417548 r C.175.16340
00417554 r C.174.16339
004175a8 r C.57.14927
00419a3c r proc_table
0041aef0 r __FUNCTION__.14477
0041bcf0 r __FUNCTION__.17258
0041bd08 r C.116.17274
0041bd2c r __FUNCTION__.16779
0041bd44 r C.104.16792
0041bd68 r C.103.16791
0041bda8 r __FUNCTION__.16568
0041bdc4 r __FUNCTION__.16512
0041bddc r __FUNCTION__.16475
0041bdf4 r __FUNCTION__.16428
0041be14 r __FUNCTION__.16380
0041be2c r __FUNCTION__.16330
0041be4c r __FUNCTION__.16284
0041be6c r __FUNCTION__.16235
0041be88 r __FUNCTION__.16189
0041bea4 r __FUNCTION__.15838
0041bec4 r __FUNCTION__.15185
0041bed8 r __FUNCTION__.14896
0041bef0 r __FUNCTION__.14755
0041bf6c r __FUNCTION__.14474
0041c0d4 r __PRETTY_FUNCTION__.4538
0041c0dc r __FUNCTION__.6098
0041c0f0 r __FUNCTION__.6085
0041c100 r __FUNCTION__.6071
0041c110 r __FUNCTION__.6052
0041c4e8 r __PRETTY_FUNCTION__.3797
0041c4f4 r __PRETTY_FUNCTION__.3685
0041c504 r __PRETTY_FUNCTION__.3653
0041cae8 r __FUNCTION__.5092
0041caf8 r thread_state_str
0041d2a4 R cmds
0041d4a4 R afs
0041d510 r sintab
0041d720 r argtype
0041dc44 r priv_type_size
0041dc64 r __FUNCTION__.5506
0041de1c r _ZZ7longjmpE19__PRETTY_FUNCTION__
0041de50 r illoptchar
0041de68 r gnuoptchar
0041de80 r recargchar
0041dea4 r ambig
0041dec4 r noarg
0041def0 r recargstring
0041df14 r illoptstring
0041df30 r CSWTCH.40
0041e038 r _ZZ6getenvE19__PRETTY_FUNCTION__
0041e070 r _ZL24cyg_libc_default_environ
0041e0cc r rmask.0
0041e114 r BARC_THR_QUIET
0041e150 r pow2Table
0041e550 R bitrevTab
0041e5e4 R twidTab64
0041e7c4 R twidTab512
0041f784 R cossintab
00420984 R sideInfoTabShort
004209a4 R sideInfoTabLong
00420a0c R huff_ctabscf
00420bf0 R huff_ctab11
00420e34 R huff_ctab10
00420f88 R huff_ctab9
004210dc R huff_ctab8
0042115c R huff_ctab7
004211dc R huff_ctab6
00421280 R huff_ctab5
00421324 R huff_ctab4
004213c8 R huff_ctab3
0042146c R huff_ctab2
00421510 R huff_ctab1
004215b4 R huff_ltabscf
004216a8 R huff_ltab11
004218ec R huff_ltab9_10
00421a40 R huff_ltab7_8
00421ac0 R huff_ltab5_6
00421b64 R huff_ltab3_4
00421c08 R huff_ltab1_2
00421cac R sfb_96000_short_128
00421cb8 R sfb_96000_long_1024
00421ce4 R sfb_88200_short_128
00421cf0 R sfb_88200_long_1024
00421d1c R sfb_64000_short_128
00421d28 R sfb_64000_long_1024
00421d58 R sfb_48000_short_128
00421d68 R sfb_48000_long_1024
00421d9c R sfb_44100_short_128
00421dac R sfb_44100_long_1024
00421de0 R sfb_32000_short_128
00421df0 R sfb_32000_long_1024
00421e24 R sfb_24000_short_128
00421e34 R sfb_24000_long_1024
00421e64 R sfb_22050_short_128
00421e74 R sfb_22050_long_1024
00421ea4 R sfb_16000_short_128
00421eb4 R sfb_16000_long_1024
00421ee0 R sfb_12000_short_128
00421ef0 R sfb_12000_long_1024
00421f1c R sfb_11025_short_128
00421f2c R sfb_11025_long_1024
00421f58 R sfb_8000_short_128
00421f68 R sfb_8000_long_1024
00421f90 R quantBorders
00421fb0 R pow2tominusNover16
00421fd4 R invSBF
00422034 R mTab_3_4
00422834 R formfac_sqrttable
004229b4 R LongWindowKBD
004231b4 R ShortWindowSine
004232f8 V _ZTVSt9bad_alloc
00423310 V _ZTSSt9bad_alloc
00423320 V _ZTISt9bad_alloc
00423350 V _ZTVSt13bad_exception
00423368 V _ZTVSt9exception
00423380 V _ZTSN10__cxxabiv119__foreign_exceptionE
004233a4 V _ZTSN10__cxxabiv115__forced_unwindE
004233c4 V _ZTSSt13bad_exception
004233d8 V _ZTISt13bad_exception
004233e4 V _ZTSSt9exception
004233f8 V _ZTVN10__cxxabiv117__class_type_infoE
00423428 V _ZTSN10__cxxabiv117__class_type_infoE
0042344c V _ZTIN10__cxxabiv117__class_type_infoE
00423458 V _ZTVSt9type_info
00423478 V _ZTSSt9type_info
00423488 V _ZTVN10__cxxabiv120__si_class_type_infoE
004234b8 V _ZTSN10__cxxabiv120__si_class_type_infoE
004234e0 V _ZTIN10__cxxabiv120__si_class_type_infoE
00423924 r cplus_demangle_builtin_types
00423ba4 r standard_subs
00423c68 r cplus_demangle_operators
004245fc R __thenan_sf
00424618 R __thenan_df
00424c20 A __ram_data_start
00424c20 A __rom_data_start
00424c20 D _fdata
00424c20 D _impure_data
00425048 d gbEthCamEthLinkStatus
0042504c d ipccmd_tbl
004250a4 D eth_ip
004250f8 D gEthCamNvtNetHostNameSrv
00425134 D cyg_cpu_freq
00425138 D cyg_mem_size
0042513c D hal_vsr_table
004251bc D cyg_io_serial_devio
004251d8 D cyg_io_serial_callbacks
004251e4 d tty_devio
00425200 d haldiag_channel0
004252bc d haldiag_funs
004252d0 d _ZL11dev_fileops
004252f8 D cyg_bsd_sockops
00425320 D cyg_bsd_sock_fileops
00425348 D server_socket
0042534c D g_dhcp_interface
0042535c d keywords
00425864 D options
004259a8 D option_lengths
004259d0 D cyg_gSDIOObj
00425a04 D cyg_cyg_sdio_disk_funs
00425a20 d vSdioHosts
00425a74 d vSDIO_SEG_NUM
00425a80 D cyg_gSDIO_SdmmcInfo_DefaultTbl
00425b0c d vuiSDIO_ReadTimeout
00425b18 d vSDIO_EmmcBootConfig
00425b78 d vucSDIOCardCurrentType
00425b7c d vSDIO_Bus_Speed_Mode
00425b88 d vSDIO_HostConfig
00425d38 d vuiSDIO_WriteTimeout
00425d44 d vbSDIO_CMD0_RST
00425d50 d vbSDIO_STR_FUNC
00425d5c d vSDIO_Format_OemID
00425d78 d vSDIO_Format_VolumeLabel
00425d9c d vbSDIO_Format_RandVolID
00425da8 d msqid
00425dac d msqid
00425db0 D _cos_90
00425f1c D _sin_90
00426088 D _icos_90
004261f4 D _isin_90
00426360 d isinit.2833
00426364 d isalloc.2842
00426368 d _ZL13m_InterfaceCb
0042638c D loopbackWorks
00426390 d rand_type
00426394 d state
00426398 d rptr
0042639c d fptr
004263a0 d end_ptr
004263a4 d rand_deg
004263a8 d rand_sep
004263ac d randtbl
0042642c D _ZN15OutPacketBuffer7maxSizeE
00426430 D _ZN6Socket10DebugLevelE
00426434 d ethcamboot_tftp_fileops
00426444 D dict
004264a0 D smooth_array
004264fc D max_array
00426558 d pmkmap
004265b8 D l_w_max_0
004266b8 D l_w_0
00432cb8 D l_b_0
00432db8 D l_w_max_1
004331b8 D l_w_1
004371b8 D l_b_1
004375b8 D l_w_max_2
004376b8 D l_w_2
0043b6b8 D l_b_2
0043b7b8 D l_w_max_3
0043bbb8 D l_w_3
0043fbb8 D l_b_3
0043ffb8 D l_w_max_4
004400b8 D l_w_4
004440b8 D l_b_4
004441b8 D l_w_max_5
004445b8 D l_w_5
004485b8 D l_b_5
004489b8 D l_w_max_6
00448a14 D l_w_6
0044a114 D l_b_6
0044a170 D dnn_layer_info
0044a194 D pw_max
0044a1b0 D pw
0044a1cc D pb
0044a1e8 D bias
0044a818 D window
0044ae48 d bPrintBootTag
0044ae4c d g_MsgId
0044ae50 d g_UdpSocketSendAddrLen
0044ae54 d uiAddrUart
0044ae58 d m_bChar1st
0044ae5c D if_nvtimeth_sc
0044af64 d if_nvtimeth_sc_funs
0044af90 d _ZL5_putc
0044af94 D _ZN10Cyg_Thread15thread_data_mapE
0044af98 d _ZL14next_unique_id
0044af9c D cyg_scheduler_sched_lock
0044afa0 D _ZN15Cyg_SchedThread3asrE
0044afa4 D cygmem_memalloc_heaps
0044afac d _ZZ9vfnprintfE6zeroes
0044afbc d _ZZ9vfnprintfE6blanks
0044afcc d _ZL17strtok_data_index
0044afd0 D cyg_libc_time_current_dst_stat
0044afd4 D cyg_libc_time_current_dst_offset
0044afd8 D hal_interrupt_handlers
0044b0ec D hal_interrupt_data
0044b200 D hal_interrupt_objects
0044b314 d channels
0044b32c d _ZL16thread_id_cookie
0044b330 D eth_drv_funs
0044b344 D eth0_name
0044b348 D eth1_name
0044b34c D wlan0_name
0044b350 D dhcp_cli_gateway
0044b354 d protocols
0044b414 D cyg_hz
0044b418 D cyg_tick
0044b41c D cyg_net_log_mask
0044b420 D cyg_nmbclusters
0044b424 d seed.4817
0044b428 D cyg_ifqmaxlen
0044b42c d if_indexlim.5464
0044b430 D routesw
0044b464 D routedomain
0044b490 d route_src
0044b4b0 d route_proto
0044b4b4 d route_dst
0044b4d4 d sa_zero
0044b4f4 d route_usrreqs
0044b544 D cyg_raw_usrreqs
0044b594 D cyg_etherbroadcastaddr
0044b59c d packet_src
0044b5bc d packetdomain
0044b5e8 d packetsw
0044b650 d packet_usrreqs
0044b6a0 D cyg_ipport_lowfirstauto
0044b6a4 D cyg_ipport_lowlastauto
0044b6a8 D cyg_ipport_firstauto
0044b6ac D cyg_ipport_lastauto
0044b6b0 D cyg_ipport_hifirstauto
0044b6b4 D cyg_ipport_hilastauto
0044b6b8 D cyg_inetsw
0044b88c D cyg_inetdomain
0044b8b8 d rtq_reallyold
0044b8bc d rtq_minreallyold
0044b8c0 d rtq_toomany
0044b8c4 d icmpsrc
0044b8e4 d icmpdst
0044b904 d icmpgw
0044b924 d icmplim
0044b928 D cyg_ip_defttl
0044b92c D cyg_fw_enable
0044b930 D cyg_inetctlerrmap
0044b988 d ipsendredirects
0044b98c d ipaddr
0044b9ac D cyg_ip_mrouter_set
0044b9b0 D cyg_ip_mrouter_get
0044b9b4 D cyg_ip_mrouter_done
0044b9b8 D cyg_ip_mforward
0044b9bc D cyg_mrt_ioctl
0044b9c0 D cyg_ip_mcast_src
0044b9c4 D cyg_arpintrq
0044b9d8 d arpt_prune
0044b9dc d arpt_keep
0044b9e0 d arpt_down
0044b9e4 d arp_maxtries
0044b9e8 d useloopback
0044b9ec d log_arp_wrong_iface
0044b9f0 d llcx.5281
0044b9fc d null_sdl.5146
0044ba34 d sin.5881
0044ba54 D cyg_udpcksum
0044ba58 D cyg_udp_sendspace
0044ba5c D cyg_udp_recvspace
0044ba60 D cyg_udp_usrreqs
0044bab0 d udp_in
0044bad0 D cyg_tcp_delack_enabled
0044bad4 D cyg_tcp_lq_overflow
0044bad8 D cyg_ss_fltsz
0044badc D cyg_ss_fltsz_local
0044bae0 D cyg_tcp_do_newreno
0044bae4 d path_mtu_discovery
0044bae8 D cyg_tcp_usrreqs
0044bb38 D cyg_tcp_sendspace
0044bb3c D cyg_tcp_recvspace
0044bb40 D tcp_rexmit_shift_max
0044bb44 D cyg_tcp_syn_backoff
0044bb78 D cyg_tcp_backoff
0044bbac D cyg_tcp_mssdflt
0044bbb0 d tcp_do_rfc1323
0044bbb4 d do_tcpdrain
0044bbb8 d icmp_may_rst
0044bbbc d PADDING
0044bbfc D cyg_maxsockets
0044bc00 D cyg_sb_max
0044bc04 D cyg_mbuf_wait
0044bc08 d s
0044bc0c D stext_addr
0044bc10 D etext_addr
0044bc14 D rtc_resolution
0044bc1c V opterr
0044bc20 V optind
0044bc24 d place.2666
0044bc28 D cygvar_libm_compat_mode
0044bc2c d services
0044bc9c D cyg_rip_sendspace
0044bca0 D cyg_rip_recvspace
0044bca4 D cyg_rip_usrreqs
0044bcf4 d ripsrc
0044bd14 d server_instence
0044bd1c d client_instence
0044bd24 d longopts.6502
0044bf64 D label_byte
0044bf74 D label_bit
0044bf84 d cJSON_malloc
0044bf88 d cJSON_free
0044bf8c d msqid
0044bf90 d nvtfs_dirops
0044bfb8 d nvtfs_fileops
0044bfe0 d gIpcPrivateCB
0044c03c d gIPC_MsgId
0044c040 d gIPC_MsgId
0044c058 d g_ProcIdTbl
0044c0d0 d ethsocket_cli_ipc_thread_name
0044c148 D gethsocket_cli_obj
0044c250 d ethsocket_cli_mapping_id
0044c254 d ethsocket_cli_thread_name
0044c2cc D rltk819x_wlan_sc0
0044c3d4 d rltk819x_wlan_sc0_funs
0044c400 D ecos_pr_fun
0044c404 D BG_TABLE
0044c458 D MCS_40M_TABLE
0044c4a0 D MCS_20M_TABLE
0044c4f8 D wlan_device
0044c50c D dot11_rate_table
0044c51c D oui_8021h
0044c520 D Tkip_Sbox_Lower
0044c620 D Tkip_Sbox_Upper
0044c720 D sbox_table
0044c820 D MCS_DATA_RATEStr
0044c9a0 D GlobalDebugLevel
0044c9a8 D GlobalDebugComponents
0044c9b0 d newaddr
0044c9b4 D func_max_byte_size
0044c9b8 d _ZL18cyg_libc_rand_seed
0044c9bc d nonopt_end
0044c9c0 d nonopt_start
0044c9c4 d place
0044c9c8 d dash_prefix
0044c9cc V environ
0044c9d0 d _u16SupportTable
0044c9f8 d _as32StopFrequency
0044ca1c d blockType2windowShape
0044ca24 D hiPassCoeff
0044ca2c d synchronizedBlockTypeTable
0044ca4c d suggestedGroupingTable
0044ca8c d countFuncTable
0044cad0 d sfbInfoTab
0044cb68 R __EH_FRAME_BEGIN__
0044d2e4 R __FRAME_END__
0044d3e8 D __CTOR_LIST__
0044d46c D __CTOR_END__
0044d46c D __DTOR_LIST__
0044d470 D __DTOR_END__
0044d480 D __NET_INIT_TAB__
0044d480 D _net_init_tab0x50000000mbufmbinit
0044d4a0 D _net_init_tab0x60000000devscyg_net_init_devs
0044d4c0 D _net_init_tab0x70000000if_looploopattach
0044d4e0 D _net_init_tab0x84000000interfacesifinit
0044d500 D _net_init_tab0x88000000domaindomaininit
0044d520 D _net_init_tab0x88000001domain_inetcyg_net_add_domain
0044d540 D _net_init_tab0x88000001domain_packetcyg_net_add_domain
0044d560 D _net_init_tab0x88000001domain_routecyg_net_add_domain
0044d580 D _net_init_tab0x88000002routecall_route_init
0044d5a0 D _net_init_tabSI_SUB_KMEMFFFFFFsysctlsysctl_register_all
0044d5c0 D __DEVTAB__
0044d5c0 D __NET_INIT_TAB_END__
0044d5c0 D tty_io_diag
0044d5e0 D haldiag_io0
0044d600 D cyg_sdio_devtab_entry
0044d620 D __DEVTAB_END__
0044d620 D cyg_fstab
0044d620 D dev_fste
0044d660 D nvtfs_fste
0044d6a0 D __MAINFUNCTAB__
0044d6a0 D cyg_fstab_end
0044d6a0 D usage
0044d6c0 D heap
0044d6e0 D help
0044d700 D nvtrtspd_ecos
0044d720 D testmem
0044d740 D fsipc
0044d760 D iperf
0044d780 D iperfc
0044d7a0 D iperfresult
0044d7c0 D ping
0044d7e0 D ipcHough_Trans
0044d800 D nvtrtspd
0044d820 D ver
0044d840 D uart
0044d860 D ker
0044d880 D kill_th
0044d8a0 D release_th
0044d8c0 D sp
0044d8e0 D ps
0044d900 D ifconfig
0044d920 D mac
0044d940 D iwpriv
0044d960 D rssi
0044d980 D getmib
0044d9a0 D setmib
0044d9c0 D ob
0044d9e0 D od
0044da00 D ow
0044da20 D ib
0044da40 D idd
0044da60 D iw
0044da80 D orf
0044daa0 D irf
0044dac0 D p2pcmd
0044dae0 D wlan0
0044db00 D show
0044db20 D __MAINFUNCTAB_END__
0044db20 D cyg_mtab
0044db20 D dev_mte
0044db40 D cyg_mtab_extra
0044dc40 D __NETDEVTAB__
0044dc40 D cyg_mtab_end
0044dc40 D if_nvtimeth_netdev_entry
0044dc60 D rltk819x_wlan0_netdev0
0044dc80 D __NETDEVTAB_END__
0044dc80 D cyg_bsd_nste
0044dc80 D cyg_nstab
0044dca0 D __sysctl_tab__
0044dca0 D cyg_nstab_end
0044dca0 D sysctl___net_link
0044dce0 D sysctl___net_link_generic
0044dd20 D sysctl___net_routetable
0044dd60 D sysctl___net_link_ether
0044dda0 D sysctl___net_inet_ip_subnets_are_local
0044dde0 D sysctl___net_inet_ip_portrange
0044de20 D sysctl___net_inet_ip_portrange_lowfirst
0044de60 D sysctl___net_inet_ip_portrange_lowlast
0044dea0 D sysctl___net_inet_ip_portrange_first
0044dee0 D sysctl___net_inet_ip_portrange_last
0044df20 D sysctl___net_inet_ip_portrange_hifirst
0044df60 D sysctl___net_inet_ip_portrange_hilast
0044dfa0 D sysctl___net_inet
0044dfe0 D sysctl___net_inet_ip
0044e020 D sysctl___net_inet_icmp
0044e060 D sysctl___net_inet_udp
0044e0a0 D sysctl___net_inet_tcp
0044e0e0 D sysctl___net_inet_igmp
0044e120 D sysctl___net_inet_raw
0044e160 D sysctl___net_inet_ip_rtexpire
0044e1a0 D sysctl___net_inet_ip_rtminexpire
0044e1e0 D sysctl___net_inet_ip_rtmaxcache
0044e220 D sysctl___net_inet_icmp_stats
0044e260 D sysctl___net_inet_icmp_maskrepl
0044e2a0 D sysctl___net_inet_icmp_drop_redirect
0044e2e0 D sysctl___net_inet_icmp_log_redirect
0044e320 D sysctl___net_inet_icmp_icmplim
0044e360 D sysctl___net_inet_icmp_bmcastecho
0044e3a0 D sysctl___net_inet_ip_fastforwarding
0044e3e0 D sysctl___net_inet_ip_forwarding
0044e420 D sysctl___net_inet_ip_redirect
0044e460 D sysctl___net_inet_ip_ttl
0044e4a0 D sysctl___net_inet_ip_sourceroute
0044e4e0 D sysctl___net_inet_ip_accept_sourceroute
0044e520 D sysctl___net_inet_ip_keepfaith
0044e560 D sysctl___net_inet_ip_maxfragpackets
0044e5a0 D sysctl___net_inet_ip_check_interface
0044e5e0 D sysctl___net_inet_ip_intr_queue_maxlen
0044e620 D sysctl___net_inet_ip_intr_queue_drops
0044e660 D sysctl___net_inet_ip_stats
0044e6a0 D sysctl___net_link_ether_inet
0044e6e0 D sysctl___net_link_ether_inet_prune_intvl
0044e720 D sysctl___net_link_ether_inet_max_age
0044e760 D sysctl___net_link_ether_inet_host_down_time
0044e7a0 D sysctl___net_link_ether_inet_maxtries
0044e7e0 D sysctl___net_link_ether_inet_useloopback
0044e820 D sysctl___net_link_ether_inet_proxyall
0044e860 D sysctl___net_link_ether_inet_log_arp_wrong_iface
0044e8a0 D sysctl___net_inet_udp_checksum
0044e8e0 D sysctl___net_inet_udp_cyg_log_in_vain
0044e920 D sysctl___net_inet_udp_blackhole
0044e960 D sysctl___net_inet_udp_stats
0044e9a0 D sysctl___net_inet_udp_pcblist
0044e9e0 D sysctl___net_inet_udp_maxdgram
0044ea20 D sysctl___net_inet_udp_recvspace
0044ea60 D sysctl___net_inet_tcp_stats
0044eaa0 D sysctl___net_inet_tcp_cyg_log_in_vain
0044eae0 D sysctl___net_inet_tcp_blackhole
0044eb20 D sysctl___net_inet_tcp_delayed_ack
0044eb60 D sysctl___net_inet_tcp_cyg_tcp_lq_overflow
0044eba0 D sysctl___net_inet_tcp_path_mtu_discovery
0044ebe0 D sysctl___net_inet_tcp_slowstart_flightsize
0044ec20 D sysctl___net_inet_tcp_local_slowstart_flightsize
0044ec60 D sysctl___net_inet_tcp_newreno
0044eca0 D sysctl___net_inet_tcp_sendspace
0044ece0 D sysctl___net_inet_tcp_recvspace
0044ed20 D sysctl___net_inet_tcp_keepinit
0044ed60 D sysctl___net_inet_tcp_keepidle
0044eda0 D sysctl___net_inet_tcp_keepintvl
0044ede0 D sysctl___net_inet_tcp_delacktime
0044ee20 D sysctl___net_inet_tcp_msl
0044ee60 D sysctl___net_inet_tcp_always_keepalive
0044eea0 D sysctl___net_inet_tcp_rexmit_min
0044eee0 D sysctl___net_inet_tcp_rexmit_shift_max
0044ef20 D sysctl___net_inet_tcp_mssdflt
0044ef60 D sysctl___net_inet_tcp_rfc1323
0044efa0 D sysctl___net_inet_tcp_rfc1644
0044efe0 D sysctl___net_inet_tcp_tcbhashsize
0044f020 D sysctl___net_inet_tcp_do_tcpdrain
0044f060 D sysctl___net_inet_tcp_pcbcount
0044f0a0 D sysctl___net_inet_tcp_icmp_may_rst
0044f0e0 D sysctl___net_inet_tcp_strict_rfc1948
0044f120 D sysctl___net_inet_tcp_isn_reseed_interval
0044f160 D sysctl___net_inet_tcp_pcblist
0044f1a0 D sysctl___net
0044f1e0 D sysctl___sysctl
0044f220 D sysctl___sysctl_debug
0044f260 D sysctl___sysctl_name
0044f2a0 D sysctl___sysctl_next
0044f2e0 D sysctl___sysctl_name2oid
0044f320 D sysctl___sysctl_oidfmt
0044f360 D sysctl___net_inet_igmp_stats
0044f3a0 D sysctl___net_inet_raw_maxdgram
0044f3e0 D sysctl___net_inet_raw_recvspace
0044f420 D sysctl___net_inet_raw_pcblist
0044f460 D __sysctl_tab_end__
0044f460 G _impure_ptr
0044f464 V _ZTIN10__cxxabiv119__foreign_exceptionE
0044f46c V _ZTIN10__cxxabiv115__forced_unwindE
0044f474 V _ZTISt9exception
0044f47c G _ZN10__cxxabiv120__unexpected_handlerE
0044f480 V _ZTISt9type_info
0044f488 G _ZN10__cxxabiv119__terminate_handlerE
0044f48c A __bss_start
0044f48c A __ram_data_end
0044f48c A _edata
0044f48c A _fbss
0044f48c A _image_general_zi_zi_base
0044f48c A _section_zi_addr
0044f490 s marker.3863
0044f494 s unseen_objects
0044f498 s seen_objects
0044f49c S __new_handler
0044f4a0 B m_UsageCpuCtrl
00450280 B gEthCamCpu1IpcReady
00450284 B gEthCamDhcpSrvIP
00450288 B gEthCamDhcpSrvOpened
0045028c B gEthCamDhcpSrvConnIpInfo
004502a0 b thread_s
00450398 b eth0_stack
00451398 b handle_t
0045139c b m_uctrl_hdl
004513a0 b pkt1
004523a0 b pkt2
004533a0 b __interrupt_stack_base
004533a0 B cyg_interrupt_stack_base
004543a0 b __interrupt_stack
004543a0 B cyg_interrupt_stack
004543c0 b __exception_stack_base
004543c0 B cyg_exception_stack_base
004553c0 b __exception_stack
004553c0 B cyg_exception_stack
004553e0 b __system_stack_base
004553e0 B cyg_system_stack_base
00457450 A _gp
0045d3e0 b __system_stack
0045d3e0 B cyg_system_stack
0045d400 b tty_private_info_diag
0045d40c b _no_data
0045d410 B memsta_alloc_stksize
0045d414 b _ZL16memsta_alloc_cnt
0045d418 b _ZL15memsta_free_cnt
0045d41c b _ZL20memsta_alloc_maxaddr
0045d420 b _ZL20memsta_alloc_maxsize
0045d424 B cyg_cdir_mtab_entry
0045d428 B cyg_cdir_dir
0045d42c b _ZL18fileio_initializer
0045d430 b _ZL10fstab_lock
0045d4d0 b _ZL9mtab_lock
0045d570 B leases
0045d574 B dhcp_running
0045d575 B dhcp_started
0045d576 B dhcp_suspended
0045d577 B dhcp_ready
0045d578 B gDhcpdCliAttachCB
0045d57c B gDhcpdLeaseTbl
0045d584 b dhcpd_stack
00461584 b dhcpd_thread
00461588 b dhcpd_thread_object
00461680 b dhcpd_flag
00461688 B server_config
004616ec b pkt2.4872
004617ec b pkt1.4871
004618ec B g_is_dhcp_lease_conf_set
004618f0 B g_dhcp_lease_conf
00461978 B blank_chaddr
00461988 b bIsLocked
0046198c b bIsOpened
00461990 B sem_sdio
00461998 B flag_sdio
004619a0 b vbSDIO_AutoDisIoInt
004619ac b vSDIO_SEG_EN
004619b8 b vbSDIO_EnSSPLL
004619c4 b vuiSDIO_DesTab
00461c04 B sdio_interrupthandle
00461c08 B sdio_interrupt
00461c24 B vpSdioSetIoIntHdl
00461c30 b vpSDIOObj
00461c3c b vSDIO_DRV_STATE
00461c48 b vSDIO_Misc_Info
00461cf0 b vpSdioSetCardIOHdl
00461cfc b vpSdioSetCardPwrHdl
00461d08 b vSDIO_MEM_POOL_ADDR
00461d14 b vbSDIO_HCSD_CCS
00461d20 b vucSDIOCardCurrentState
00461d24 b vbSDIO_HCSD
00461d30 b vuiSDIO_Format_VolID
00461d3c b vSDIO_ImproveLowCapacity
00461d48 b vbSDIO_IOInit
00461d54 b vbSDIO_DisCmd17RangeCheck
00461d60 b vuiSDIO_EnUHSI
00461d6c b vpSdioGetWriteProtectHdl
00461d78 b vpSdioGetCardExistHdl
00461d84 b vucSDIOWriteProtect
00461d90 b vSDIO_MEM_POOL_SIZE
00461d9c b vuiSDIOOCR
00461da8 b vuiSDIORSP
00461db4 b vuiSDIORCA
00461dc0 b vuiSDIOFUNC
00461dcc b vCmdIntStatus
00461dd8 b vDatIntStatus
00461de4 b vgSDIO_SDCid
00461e20 b vgSDIO_MMCCid
00461e68 b vgSDIO_SDMMCCsd
00461eec b vgSDIO_SDScr
00461f04 b vgSDIO_SDStatus
00461f34 b vgSDIO_SDSwFunStatus
00461fa0 b vgSDIO_SdmmcInfo
00462000 b vgSDIO_MMCExtCSD
00462078 b vgSDIO_SdmmcCap
004620b4 b vSDIO_OriginReadBlkLen
004620c0 b vLDispPinmuxConfig
004620d0 b miDisplay
004620d4 b gTopReg3
004620d8 b gTopReg5
004620dc b pAuthInfo
004620e0 b is_audproc_opened
004620e4 b audproc_stacks
004640e4 b w
004640e8 b szAlgMem
004820e8 b inited.4149
004820ec b audproc_thread
004820f0 b audproc_thread_object
004821e8 b runIPCHoughTH.4256
004821ec b runIPCHoughStack.4255
004831f0 b runIPCHoughTHS.4254
004832e8 b ImgAddr
004832ec b HoughParmsAddr
004832f0 b BufAddr
004832f4 b LinesAddr
004832f8 b CountPtsAddr
004832fc b gIsInit
00483300 B g_HL_mem
0048331c b _ZL12DELAY_MINUTE
00483324 b _ZL10DELAY_HOUR
0048332c b _ZL9DELAY_DAY
00483334 b _ZL16g_fWatchVariable
00483338 b _ZL9m_hThread
0048333c b _ZL7g_Stack
00485340 b _ZL13m_hThread_Obj
00485438 b _ZL9g_pNvtMgr
0048543c b _ZL8g_MsgCmd
00485480 b _ZL7g_strms
00485488 b _ZL7g_stack
00485c88 b _ZL6m_hFps
00485c90 b _ZL10m_hFps_Obj
00485d88 b _ZL12DELAY_MINUTE
00485d90 b _ZL10DELAY_HOUR
00485d98 b _ZL9DELAY_DAY
00485da0 b _ZL12DELAY_MINUTE
00485da8 b _ZL10DELAY_HOUR
00485db0 b _ZL9DELAY_DAY
00485db8 B DELAY_ZERO
00485dc0 B DELAY_SECOND
00485dc8 B _ZN15DelayQueueEntry12tokenCounterE
00485dcc B THE_END_OF_TIME
00485dd4 b _ZL12DELAY_MINUTE
00485ddc b _ZL10DELAY_HOUR
00485de4 b _ZL9DELAY_DAY
00485dec b _ZL8ETERNITY
00485df4 b _ZZL18lastModifiedHeaderPKcE3buf
00485ebc b _ZL17base64DecodeTable
00485fbc b _ZZ12base64DecodePKcjRjhE32haveInitializedBase64DecodeTable
00485fc0 b _ZL12DELAY_MINUTE
00485fc8 b _ZL10DELAY_HOUR
00485fd0 b _ZL9DELAY_DAY
00485fd8 b _ZL12DELAY_MINUTE
00485fe0 b _ZL10DELAY_HOUR
00485fe8 b _ZL9DELAY_DAY
00485ff0 B SendingInterfaceAddr
00485ff4 B ReceivingInterfaceAddr
00485ff8 b _ZZ15timestampStringvE10timeString
00486004 b _ZZ12ourIPAddressR16UsageEnvironmentE10ourAddress
00486008 B _ZN9Groupsock13statsIncomingE
00486010 B _ZN9Groupsock13statsOutgoingE
00486018 B _ZN9Groupsock20statsRelayedIncomingE
00486020 B _ZN9Groupsock20statsRelayedOutgoingE
00486028 B _ZN12NetInterface23DefaultUsageEnvironmentE
0048602c b _ZZ10dateHeadervE3buf
004860f4 B cc_interrupthandle
004860f8 b CPU1Handler
004860fc b CPU3Handler
00486100 b cpu1CmdSerialNum
00486104 b cpu3CmdSerialNum
00486108 B cc_interrupt
00486124 b is_ethcamboot_opened
00486128 b tftp_server_id
0048612c b tftp_rootpath
0048614c B membase
00486150 B malloc_dev
00486160 B m_NvtIpc_Ctrl
0048cdd0 b ipc_errCode
0048cdd4 b ipc_errCMD
0048cdd8 b g_pMsqInfo
0048cddc b MsgQueTokenStr
0048cf68 b g_fakeio_init_ok
0048cf70 b g_BufInfo
0048e170 b g_IpcParam
0048e17c b g_shmap_ptr
0048e180 b g_pshm
0048e184 b g_threadhdl_ipc
0048e188 b g_threadobj_ipc
0048e280 b g_threadstack_ipc
0048ea80 b ver_name
0048eaa8 b mdu_name
0048ead0 b dat_name
0048eaf8 b pUnit
00490a38 b ethsocket_udp_obj
00490a50 b isUdpServerStart
00490a54 b isStopUdpServer
00490a58 b ethsocket_udp_stacks
00492058 b ethsocket_udp_flag
00492060 b g_UdpSocketSendAddr
00492080 b g_Udpsockfd
00492084 b ethsocket_udp_thread
00492088 b ethsocket_udp_thread_object
00492180 b m_bIPC
00492184 b i_msg_head
00492188 b msg
00493188 b m_hThread
00493190 b m_hThread_Obj
00493288 b i_msg_tail
0049328c b send.4042
0049338c b g_Stack
00494468 b m_hSemIPC
00494480 b pool_tx_desc
00494ca0 b pool_rx_desc
004954c0 b pool_rx_buf
004aeb00 b stack_buf
004af300 B priv_data
004af4b0 b _init.2295
004af4b4 b _ZZL9trim_funcPKcE4fbuf
004af518 b _ZL30cyg_kapi_check_structure_sizes
004af51c B _ZN10Cyg_Thread11thread_listE
004af520 B idle_thread_loops
004af528 B idle_thread
004af620 b _ZL17idle_thread_stack
004afe20 b _ZL13pre_unique_id
004afe30 B _ZN10Cyg_Thread17exception_controlE
004afe38 B _ZN13Cyg_Interrupt15disable_counterE
004afe3c B _ZN13Cyg_Interrupt26interrupt_disable_spinlockE
004afe40 B _ZN13Cyg_Interrupt23interrupt_disable_stateE
004afe44 B _ZN13Cyg_Interrupt8dsr_listE
004afe48 B _ZN28Cyg_Scheduler_Implementation15timeslice_countE
004afe4c B _ZN18Cyg_Scheduler_Base14current_threadE
004afe50 B _ZN18Cyg_Scheduler_Base15need_rescheduleE
004afe54 B _ZN13Cyg_Scheduler9schedulerE
004afed8 B _ZN18Cyg_Scheduler_Base15thread_switchesE
004afedc B cygmem_pool_heap1
004b02f0 B cyg_libc_stdio_stderr
004b0334 B _ZN20Cyg_libc_stdio_files5filesE
004b0534 B _ZN20Cyg_libc_stdio_files10files_lockE
004b0548 B cyg_libc_stdio_stdout
004b058c b _ZL17strtok_data_mutex
004b05a0 B cyg_libc_time_asctime_buf
004b05bc B cyg_libc_time_gmtime_buf
004b05e0 B cyg_libc_time_localtime_buf
004b0604 B cyg_libc_time_current_std_offset
004b0608 B __dso_handle
004b060c B cyg_hal_clock_period
004b0610 b halPlfResetCB
004b0614 b initialized.2312
004b0618 b _ZL9conv_init
004b0620 b _ZL13sec_converter
004b0640 b _ZL12ns_converter
004b0660 B pthread_mutex
004b0674 B pthread_canceled_dummy_var
004b0678 b _ZL10thread_key
004b0688 b _ZL14key_destructor
004b0888 b _ZL12thread_table
004b0988 b _ZL13pthread_count
004b098c b _ZL15pthreads_exited
004b0990 b _ZL19pthreads_tobejoined
004b0994 b _ZL16thread_info_next
004b0998 b _ZL10main_stack
004b2998 b _ZL11main_thread
004b299c b _ZL11timer_mutex
004b29b0 b _ZL11timer_table
004b34b0 b _ZL22converters_initialized
004b34b8 b _ZL12ns_converter
004b34d8 b _ZL13sec_converter
004b34f8 b _ZL11ns_inverter
004b3518 b _ZL12sec_inverter
004b3538 b _ZL10halftickns
004b3540 B signal_mutex
004b3554 B signal_sigwait
004b355c B sig_pending
004b3560 B sigalrm_armed
004b3564 B sigalrm_pending
004b3568 b _ZL13sigalrm_alarm
004b3598 b _ZL8g_itimer
004b35c8 b _ZL8sigstate
004b37c8 b _ZL12siginfo_next
004b37cc b _ZL7siginfo
004b39cc B fdlock
004b39e0 b _ZL4file
004b4de0 b _ZL9file_lock
004b57e0 b _ZL4desc
004b59e0 b _ZL8cwd_size
004b59e4 b _ZL3cwd
004b5ae4 b _ZZ7readdirE3ent
004b5ce8 b _ZL12select_mutex
004b5cfc b _ZL7selwait
004b5d04 b _ZL13selwake_count
004b5d08 b _ZL10nstab_lock
004b5d1c b _ZL12uiStartCount
004b5d20 b _ZL12uiStartLoops
004b5d24 B cyg_io_eth_net_debug
004b5d28 b mbuf_key
004b5d2c b buf.3504
004b5d3c b dhcp_hostname
004b5d7c B eth0_up
004b5d80 B eth1_up
004b5d84 B wlan0_up
004b5d88 b loop_init.4669
004b5d8c b in_init_all_network_interfaces.4665
004b5d90 B eth0_bootp_data
004b5fd4 B eth1_bootp_data
004b6218 B wlan0_bootp_data
004b645c B gFixIPPair
004b6558 b tftpd_sems
004b6564 B cyg_proc0
004b6568 b _init.5159
004b6570 b ktime_alarm.5043
004b65a0 b last_cs.5075
004b65a8 b last_ticks.5074
004b65ac b last_mticks.5073
004b65b0 b last_tick_count.5072
004b65b8 b vm_zones
004b65bc b netint_stack
004b85c0 b netint_thread_data
004b86b8 b netint_thread_handle
004b86bc b net_mempool_area
005786bc b net_mem_pool
005786e4 b net_mem
005786e8 b net_mbufs_area
005f66e8 b net_mbufs_pool
005f670c b net_mbufs
005f6710 b net_clusters_area
00680000 A _ecos_mem_size
007b8710 b net_clusters_pool
007b8734 b net_clusters
007b8738 b net_clusters_refcnt
007b8ac0 b _netisr_handlers
007b8b40 B cyg_ktime
007b8b48 B cyg_netint_flags
007b8b50 B ktime0
007b8b58 B us_per_alarm
007b8b5c B ns_per_alarm
007b8b60 B ns_accumulator
007b8b64 B ticks_per_cs
007b8b68 B mticks_per_cs
007b8b6c B cyg_ipintrq
007b8b80 b spl_state
007b8b84 b splx_mutex
007b8b98 b splx_thread
007b8b9c b wakeup_list
007b8c5c b timeouts
007b8c60 b _timeouts
007b9860 b timeout_alarm_handle
007b9868 b timeout_alarm
007b9898 b last_delta
007b98a0 b last_set_time
007b98a8 b alarm_stack
007c18a8 b alarm_thread_data
007c19a0 b alarm_thread_handle
007c19a4 b alarm_flag
007c19ac B cyg_if_cloners
007c19b0 B cyg_if_index
007c19b4 B cyg_ifindex2ifnet
007c19b8 b unknown.6160
007c19d8 b inited.5465
007c19dc b _unknown.5429
007c1a5c B cyg_ifnet
007c1a64 B cyg_ifnet_addrs
007c1a68 B cyg_if_cloners_count
007c1a6c B sysctl__net_link_children
007c1a70 B sysctl__net_link_generic_children
007c1a74 B sysctl__net_routetable_children
007c1a78 b rtstat
007c1a84 b rttrash
007c1a88 B cyg_route_cb
007c1a9c B cyg_rt_tables
007c1b24 b last_zeroed.3818
007c1b28 b max_keylen
007c1b2c b rn_mkfreelist
007c1b30 b mask_rnhead
007c1b34 b addmask_key
007c1b38 b rn_zeros
007c1b3c b rn_ones
007c1b40 B cyg_ng_ether_input_p
007c1b44 B cyg_ng_ether_input_orphan_p
007c1b48 B cyg_ng_ether_output_p
007c1b4c B cyg_ng_ether_attach_p
007c1b50 B sysctl__net_link_ether_children
007c1b54 B cyg_loif
007c1c3c b packetpcbs
007c1c40 b subnetsarelocal
007c1c44 b in_interfaces
007c1c48 B cyg_in_multihead
007c1c4c B sysctl__net_inet_ip_portrange_children
007c1c50 B sysctl__net_inet_igmp_children
007c1c54 B sysctl__net_inet_tcp_children
007c1c58 B sysctl__net_inet_udp_children
007c1c5c B sysctl__net_inet_children
007c1c60 B sysctl__net_inet_ip_children
007c1c64 B sysctl__net_inet_icmp_children
007c1c68 B sysctl__net_inet_raw_children
007c1c6c b nousrreqs
007c1cbc b last_adjusted_timeout.5078
007c1cc0 B cyg_encaptab
007c1cc4 b initialized.4792
007c1cc8 b icmpmaskrepl
007c1ccc b drop_redirect
007c1cd0 b log_redirect
007c1cd4 b icmpbmcastecho
007c1cd8 B cyg_icmpstat
007c1d98 b ipflow_active
007c1d9c b ipflows
007c1e9c b ipflow_inuse
007c1ea0 B cyg_rsvp_on
007c1ea4 B cyg_ipforwarding
007c1ea8 B cyg_fr_checkp
007c1eac b ip_dosourceroute
007c1eb0 b ip_acceptsourceroute
007c1eb4 b ip_checkinterface
007c1eb8 b ip_nhops
007c1ebc b nipq
007c1ec0 b ip_rsvp_on
007c1ec4 b maxnipq
007c1ec8 b ipq
007c24c8 b ip_srcrt
007c24f8 b ipforward_rt
007c2580 B cyg_in_ifaddrhead
007c2588 B cyg_ipstat
007c25fc B cyg_ip_protox
007c26fc B cyg_ip_rsvpd
007c2700 B cyg_ip_fw_fwd_addr
007c2704 B cyg_ip_fw_chk_ptr
007c2708 B cyg_ip_fw_ctl_ptr
007c270c b ip_keepfaith
007c2710 b ip_maxfragpackets
007c2714 B cyg_ip_id
007c2718 B cyg_ip_mrouter
007c271c B cyg_rsvpdebug
007c2720 B cyg_legal_vif_num
007c2724 b arp_proxyall
007c2728 b arpinit_done
007c272c b llinfo_arp
007c2730 b arp_inuse
007c2734 b arp_allocated
007c2738 B sysctl__net_link_ether_inet_children
007c273c B cyg_log_in_vain
007c2740 b blackhole
007c2744 B cyg_udb
007c2748 B cyg_udbinfo
007c2778 B cyg_udpstat
007c27ac b cyg_log_in_vain
007c27b0 b blackhole
007c27b4 B cyg_tcp_ccgen
007c27b8 B cyg_tcb
007c27c0 B cyg_tcbinfo
007c27f0 B cyg_tcpstat
007c28e4 b always_keepalive
007c28e8 B cyg_tcp_keepinit
007c28ec B cyg_tcp_keepidle
007c28f0 B cyg_tcp_keepintvl
007c28f4 B cyg_tcp_maxidle
007c28f8 B cyg_tcp_delacktime
007c28fc B cyg_tcp_maxpersistidle
007c2900 B tcp_rexmit_min
007c2904 B cyg_tcp_msl
007c2908 b tcp_do_rfc1644
007c290c b tcp_tcbhashsize
007c2910 b tcp_strict_rfc1948
007c2914 b tcp_isn_reseed_interval
007c2918 B cyg_isn_secret
007c2938 B cyg_isn_last_reseed
007c293c B cyg_isn_ctx
007c2994 B cyg_domains
007c2998 B cyg_socket_zone
007c29a0 B cyg_so_gencnt
007c29a8 b old_cnt.4190
007c29ac b cur_cnt.4189
007c29b0 b old_runtime.4188
007c29b8 b rnd.4187
007c29bc B cyg_m_mballoc_wid
007c29c0 B cyg_m_clalloc_wid
007c29c4 B cyg_max_linkhdr
007c29c8 B cyg_max_protohdr
007c29cc B cyg_max_hdr
007c29d0 B cyg_max_datalen
007c29d8 B cyg_mbstat
007c2a78 B cyg_mbtypes
007c2ab8 B cyg_mbutl
007c2abc B cyg_mclrefcnt
007c2ac0 B cyg_mclfree
007c2ac4 B cyg_mmbfree
007c2ac8 b accept_filtlsthd
007c2acc b mutex_init
007c2ad0 b mutex
007c2ae4 B sysctl__children
007c2ae8 B sysctl__sysctl_children
007c2aec B sysctl__net_children
007c2af0 B sysctl__sysctl_name_children
007c2af4 B sysctl__sysctl_next_children
007c2af8 B sysctl__sysctl_oidfmt_children
007c2afc B h_errno
007c2b00 b id
007c2b04 b hent.5240
007c2b08 b domainname
007c2b0c b init.5514
007c2b10 b dns_mutex
007c2b24 b ptdindex
007c2b28 B _ZN13Cyg_WallClock9wallclockE
007c2b2c b _ZL18wallclock_instance
007c2b30 b _ZL16epoch_time_stamp
007c2b34 b _ZL11epoch_ticks
007c2b38 b _ZL11epoch_ticks
007c2b40 b _ZZL9trim_funcPKcE4fbuf
007c2ba4 B _ZN9Cyg_Clock15real_time_clockE
007c2ba8 B _ZN17Cyg_RealTimeClock3rtcE
007c2be0 b _ZL10guiPreTick
007c2be4 b _ZL34cyg_memalloc_check_structure_sizes
007c2be8 b _ZL30cyg_libc_atexit_handlers_count
007c2bec b _ZL24cyg_libc_atexit_handlers
007c2c6c B cyg_libc_stdio_stdin
007c2cb0 V optarg
007c2cb4 V optopt
007c2cb8 V optreset
007c2cbc b returned.4224
007c2ccc B cyg_rawcb_list
007c2cd0 b igmpstat
007c2cf4 b igmp_timers_are_running
007c2cf8 b igmp_all_hosts_group
007c2cfc b igmp_all_rtrs_group
007c2d00 b router_alert
007c2d04 b Head
007c2d08 b igmprt
007c2d90 B cyg_ripcb
007c2d98 B cyg_ripcbinfo
007c2dc8 b g_fpReportCB
007c2dcc b g_fLastBWResult
007c2dd0 b errstr.5429
007c2ed0 B i_errno
007c2ed4 b sigend_jmp_buf
007c2f04 b sigend_jmp_buf
007c2f34 b timeout.3276
007c2f3c b ep
007c2f40 b is_audcodec_opened
007c2f44 b audcodec_stacks
007c3f44 b audcodec_thread
007c3f48 b audcodec_thread_object
007c4040 b gIsOpened
007c4044 b gpOutSrcCB
007c4048 b gParamAddr_Local
007c404c b gRootPath
007c414c b gIsOpened
007c4164 b gRetValue
007c417c b ethsocket_cli_ipc_flag
007c41ac b ethsocket_cli_ipc_thread
007c41c4 b gRcvParamAddr
007c41dc b gRcvParamSize
007c41f4 b gSndParamAddr
007c420c b gSndParamSize
007c4224 b g_SocketCliData_BsBufTotalAddr
007c423c b g_SocketCliData_BsBufTotalSize
007c4254 b g_SocketCliData_RawEncodeAddr
007c426c b g_SocketCliData_RawEncodeSize
007c4284 b g_SocketCliData_BsQueueMax
007c429c b g_SocketCliData1_RecvAddr
007c42a4 b g_SocketCliData2_RecvAddr
007c42ac b ethsocket_cli_ipc_stacks
007caeac b g_SocketCliData2_BsBufMapTbl
007caeb4 b g_SocketCliData1_BsBufMapTbl
007caebc b g_SocketCliData2_RecvSize
007caec4 b g_SocketCliData2_BsSize
007caecc b g_SocketCliData2_BsStartPos
007caed4 b g_SocketCliData2_IdxInGOP
007caedc b g_SocketCliData2_checkSumHead
007caee4 b g_SocketCliData2_checkSumTail
007caeec b g_SocketCliData2_LongConterStampEn
007caef4 b g_SocketCliData2_LongConterLow
007caefc b g_SocketCliData2_LongConterHigh
007caf04 b g_SocketCliData2_DescSize
007caf0c b errCnt.4768
007caf10 b g_SocketCliData2_BsQueueIdx
007caf18 b uiSize.4714
007caf20 b g_SocketCliData1_RecvSize
007caf28 b g_SocketCliData1_BsFrameCnt
007caf30 b g_SocketCliData1_BsStartPos
007caf38 b g_SocketCliData1_IdxInGOP
007caf40 b g_SocketCliData1_BsSize
007caf48 b g_SocketCliData1_DescSize
007caf50 b g_SocketCliData1_checkSumHead
007caf58 b g_SocketCliData1_checkSumTail
007caf60 b g_SocketCliData1_LongConterStampEn
007caf68 b g_SocketCliData1_LongConterLow
007caf70 b g_SocketCliData1_LongConterHigh
007caf78 b g_SocketCliData1_AudCapEn
007caf80 b g_SocketCliData1_AudCapTotalSize
007caf88 b Prev_StartPos.3799
007caf90 b Prev_IdxInGOP.3798
007caf98 b Prev_BsSize.3797
007cafa0 b errCnt.3796
007cafa4 b bChkData.3793
007cafac b g_SocketCliData1_BsQueueIdx
007cafb4 b uiSize.3735
007cafc0 b ethsocket_cli_ipc_thread_object
007cb590 b g_SocketCliData1_BsAddr
007cb598 b g_SocketCliData2_BsAddr
007cb5a0 B request
008135a0 b isStartClient
008135b8 b isStopClient
008135d0 b ethsocket_cli_stacks
00862dd0 b ethsocket_cli_flag
00862e00 b ethsocket_cli_mutex
00862e14 b fdmax
00862e2c b master
00862eec b ethsocket_cli_thread
00862f08 b ethsocket_cli_thread_object
008634d8 b rltk819x_wlan0_priv_data
0086354c B cnt_cmd52_read_err
00863550 B cnt_cmd52_write_err
00863554 B host_mutex
00863568 B oui_rfc1042
0086356c b crc32_table
0086396c B tx_cipherstream
00864170 b message.15332
00864970 b passwd_hash_delay
00864974 B free_txdone_queue
00864984 b wrapper_skbbuf_list
0086498c b max_skbbuf_used_num
00864990 B skbbuf_used_num
00864994 B skb_malloc_fail_num
00864998 B cluster_malloc_fail_num
0086499c b rtl_timeouts
008649a0 b rtl_last_delta
008649a8 b rtl_last_set_time
008649b0 b rtl_spl_state
008649b4 b timeout_alarm_handle
008649b8 b rtl_splx_mutex
008649cc b rtl_splx_thread
008649d0 B rx_one_loop
008649d4 B rx_one_loop2
008649d8 B tx_one_loop
008649dc B tx_one_loop2
008649e0 b supmedia
008649e4 b listcloners
008649e8 b ifr
00864a18 b ridreq
00864a48 b addreq
00864ab8 b name
00864ad8 b flags
00864adc b metric
00864ae0 b mtu
00864ae4 b setaddr
00864ae8 b setipdst
00864aec b setmask
00864af0 b doalias
00864af4 b clearaddr
00864af8 b n.4824
00864b00 B vpSdioCmdErrHdl
00864b04 B handle
00864b08 b aacEncoder
0086856c B phAacEnc
00868570 B _stAACEInputCfg
00868584 B _u32InitAACEConfigDone
00868588 B mdctSpectrum
0086a588 B scratchTNS
0086c588 B mdctDelayBuffer
0086de88 B quantSpec
0086ee88 B scf
0086ef78 B maxValueInSfb
0086f068 b _ZL10eh_globals
0086f070 b _ZL16emergency_buffer
0086f870 b _ZL14emergency_used
0086f874 b _ZZN9__gnu_cxx27__verbose_terminate_handlerEvE11terminating
0086f878 b dwarf_reg_size_table
0086f938 A __bss_end
0086f938 A __common_base
0086f938 A __common_limit
0086f940 A __heap1
00980000 A __heap1_end
00980000 A _ecos_mem_end
00980000 A _end
00980000 A _image_general_zi_zi_limit
00980000 A _stack_start
